2017-05-08 13:59:32,272 [main] INFO  ClassPathXmlApplicationContext - Refreshing org.springframework.context.support.ClassPathXmlApplicationContext@43271a80: startup date [Mon May 08 13:59:32 CEST 2017]; root of context hierarchy
2017-05-08 13:59:32,272 [main] INFO  ClassPathXmlApplicationContext - Refreshing org.springframework.context.support.ClassPathXmlApplicationContext@43271a80: startup date [Mon May 08 13:59:32 CEST 2017]; root of context hierarchy
2017-05-08 13:59:32,317 [main] INFO  ry.xml.XmlBeanDefinitionReader - Loading XML bean definitions from class path resource [mapfish-spring-application-context.xml]
2017-05-08 13:59:32,317 [main] INFO  ry.xml.XmlBeanDefinitionReader - Loading XML bean definitions from class path resource [mapfish-spring-application-context.xml]
2017-05-08 13:59:32,638 [main] INFO  ort.DefaultListableBeanFactory - Pre-instantiating singletons in org.springframework.beans.factory.support.DefaultListableBeanFactory@62acfe94: defining beans [org.springframework.context.annotation.internalConfigurationAnnotationProcessor,org.springframework.context.annotation.internalAutowiredAnnotationProcessor,org.springframework.context.annotation.internalRequiredAnnotationProcessor,org.springframework.context.annotation.internalCommonAnnotationProcessor,mapPrinter,configFactory,threadResources,mapReaderFactoryFinder,wms-MapReaderFactory,mapServer-MapReaderFactory,tileCache-MapReaderFactory,osm-MapReaderFactory,xyz-MapReaderFactory,tms-MapReaderFactory,vector-MapReaderFactory,image-MapReaderFactory,tiledGoogle-MapReaderFactory,google-MapReaderFactory,kaMapCache-ReaderFactory,kaMap-ReaderFactory,wmts-ReaderFactory,outputFactory,imageMagickOutput,fileCachingJaiMosaicOutputFactory,inMemoryJaiMosaicOutputFactory,pdfOutputFactory,metricRegistry,healthCheckRegistry,loggingMetricsConfigurator,jvmMetricsConfigurator,jmlMetricsReporter,org.springframework.context.annotation.ConfigurationClassPostProcessor$ImportAwareBeanPostProcessor#0]; root of factory hierarchy
2017-05-08 13:59:32,638 [main] INFO  ort.DefaultListableBeanFactory - Pre-instantiating singletons in org.springframework.beans.factory.support.DefaultListableBeanFactory@62acfe94: defining beans [org.springframework.context.annotation.internalConfigurationAnnotationProcessor,org.springframework.context.annotation.internalAutowiredAnnotationProcessor,org.springframework.context.annotation.internalRequiredAnnotationProcessor,org.springframework.context.annotation.internalCommonAnnotationProcessor,mapPrinter,configFactory,threadResources,mapReaderFactoryFinder,wms-MapReaderFactory,mapServer-MapReaderFactory,tileCache-MapReaderFactory,osm-MapReaderFactory,xyz-MapReaderFactory,tms-MapReaderFactory,vector-MapReaderFactory,image-MapReaderFactory,tiledGoogle-MapReaderFactory,google-MapReaderFactory,kaMapCache-ReaderFactory,kaMap-ReaderFactory,wmts-ReaderFactory,outputFactory,imageMagickOutput,fileCachingJaiMosaicOutputFactory,inMemoryJaiMosaicOutputFactory,pdfOutputFactory,metricRegistry,healthCheckRegistry,loggingMetricsConfigurator,jvmMetricsConfigurator,jmlMetricsReporter,org.springframework.context.annotation.ConfigurationClassPostProcessor$ImportAwareBeanPostProcessor#0]; root of factory hierarchy
2017-05-08 13:59:33,123 [main] WARN  ish.print.output.OutputFactory - OutputFormatFactory org.mapfish.print.output.FileCachingJaiMosaicOutputFactory is disabled: TIFF not supported by ImageIO
2017-05-08 13:59:33,123 [main] INFO  ish.print.output.OutputFactory - OutputFormat chosen for pdf is PdfOutputFactory
2017-05-08 13:59:33,130 [main] WARN  ish.print.output.OutputFactory - OutputFormatFactory org.mapfish.print.output.FileCachingJaiMosaicOutputFactory is disabled: TIFF not supported by ImageIO
2017-05-08 13:59:33,130 [main] INFO  ish.print.output.OutputFactory - OutputFormat chosen for pdf is PdfOutputFactory
2017-05-08 13:59:33,262 [tilesReader0] INFO      org.mapfish.print.PDFUtils - -->Alternative: https://dfa30utos8zzp.cloudfront.net/1455526563/img/marker.png
2017-05-08 13:59:33,262 [tilesReader0] INFO      org.mapfish.print.PDFUtils - -->http_dfa30utos8zzp.cloudfront.net
keyStore is : 
keyStore type is : jks
keyStore provider is : 
init keystore
init keymanager of type SunX509
trustStore is: /usr/lib/jvm/java-7-openjdk-amd64/jre/lib/security/cacerts
trustStore type is : jks
trustStore provider is : 
init truststore
adding as trusted cert:
  Subject: CN=Secure Global CA, O=SecureTrust Corporation, C=US
  Issuer:  CN=Secure Global CA, O=SecureTrust Corporation, C=US
  Algorithm: RSA; Serial number: 0x75622a4e8d48a894df413c8f0f8eaa5
  Valid from Tue Nov 07 20:42:28 CET 2006 until Mon Dec 31 20:52:06 CET 2029

adding as trusted cert:
  Subject: CN=Buypass Class 2 CA 1, O=Buypass AS-983163327, C=NO
  Issuer:  CN=Buypass Class 2 CA 1, O=Buypass AS-983163327, C=NO
  Algorithm: RSA; Serial number: 0x1
  Valid from Fri Oct 13 12:25:09 CEST 2006 until Thu Oct 13 12:25:09 CEST 2016

adding as trusted cert:
  Subject: CN=E-Tugra Certification Authority, OU=E-Tugra Sertifikasyon Merkezi, O=E-Tuğra EBG Bilişim Teknolojileri ve Hizmetleri A.Ş., L=Ankara, C=TR
  Issuer:  CN=E-Tugra Certification Authority, OU=E-Tugra Sertifikasyon Merkezi, O=E-Tuğra EBG Bilişim Teknolojileri ve Hizmetleri A.Ş., L=Ankara, C=TR
  Algorithm: RSA; Serial number: 0x6a683e9c519bcb53
  Valid from Tue Mar 05 13:09:48 CET 2013 until Fri Mar 03 13:09:48 CET 2023

adding as trusted cert:
  Subject: CN=QuoVadis Root CA 2 G3, O=QuoVadis Limited, C=BM
  Issuer:  CN=QuoVadis Root CA 2 G3, O=QuoVadis Limited, C=BM
  Algorithm: RSA; Serial number: 0x445734245b81899b35f2ceb82b3b5ba726f07528
  Valid from Thu Jan 12 19:59:32 CET 2012 until Sun Jan 12 19:59:32 CET 2042

adding as trusted cert:
  Subject: CN=DigiCert Assured ID Root G3, OU=www.digicert.com, O=DigiCert Inc, C=US
  Issuer:  CN=DigiCert Assured ID Root G3, OU=www.digicert.com, O=DigiCert Inc, C=US
  Algorithm: EC; Serial number: 0xba15afa1ddfa0b54944afcd24a06cec
  Valid from Thu Aug 01 14:00:00 CEST 2013 until Fri Jan 15 13:00:00 CET 2038

adding as trusted cert:
  Subject: OU=Trustis FPS Root CA, O=Trustis Limited, C=GB
  Issuer:  OU=Trustis FPS Root CA, O=Trustis Limited, C=GB
  Algorithm: RSA; Serial number: 0x1b1fadb620f924d3366bf7c7f18ca059
  Valid from Tue Dec 23 13:14:06 CET 2003 until Sun Jan 21 12:36:54 CET 2024

adding as trusted cert:
  Subject: CN=Global Chambersign Root - 2008, O=AC Camerfirma S.A., SERIALNUMBER=A82743287, L=Madrid (see current address at www.camerfirma.com/address), C=EU
  Issuer:  CN=Global Chambersign Root - 2008, O=AC Camerfirma S.A., SERIALNUMBER=A82743287, L=Madrid (see current address at www.camerfirma.com/address), C=EU
  Algorithm: RSA; Serial number: 0xc9cdd3e9d57d23ce
  Valid from Fri Aug 01 14:31:40 CEST 2008 until Sat Jul 31 14:31:40 CEST 2038

adding as trusted cert:
  Subject: CN=AddTrust Qualified CA Root, OU=AddTrust TTP Network, O=AddTrust AB, C=SE
  Issuer:  CN=AddTrust Qualified CA Root, OU=AddTrust TTP Network, O=AddTrust AB, C=SE
  Algorithm: RSA; Serial number: 0x1
  Valid from Tue May 30 12:44:50 CEST 2000 until Sat May 30 12:44:50 CEST 2020

adding as trusted cert:
  Subject: CN=ISRG Root X1, O=Internet Security Research Group, C=US
  Issuer:  CN=ISRG Root X1, O=Internet Security Research Group, C=US
  Algorithm: RSA; Serial number: 0x8210cfb0d240e3594463e0bb63828b00
  Valid from Thu Jun 04 13:04:38 CEST 2015 until Mon Jun 04 13:04:38 CEST 2035

adding as trusted cert:
  Subject: CN=StartCom Certification Authority, OU=Secure Digital Certificate Signing, O=StartCom Ltd., C=IL
  Issuer:  CN=StartCom Certification Authority, OU=Secure Digital Certificate Signing, O=StartCom Ltd., C=IL
  Algorithm: RSA; Serial number: 0x1
  Valid from Sun Sep 17 21:46:36 CEST 2006 until Wed Sep 17 21:46:36 CEST 2036

adding as trusted cert:
  Subject: CN=QuoVadis Root Certification Authority, OU=Root Certification Authority, O=QuoVadis Limited, C=BM
  Issuer:  CN=QuoVadis Root Certification Authority, OU=Root Certification Authority, O=QuoVadis Limited, C=BM
  Algorithm: RSA; Serial number: 0x3ab6508b
  Valid from Mon Mar 19 19:33:33 CET 2001 until Wed Mar 17 19:33:33 CET 2021

adding as trusted cert:
  Subject: CN=AffirmTrust Premium ECC, O=AffirmTrust, C=US
  Issuer:  CN=AffirmTrust Premium ECC, O=AffirmTrust, C=US
  Algorithm: EC; Serial number: 0x7497258ac73f7a54
  Valid from Fri Jan 29 15:20:24 CET 2010 until Mon Dec 31 15:20:24 CET 2040

adding as trusted cert:
  Subject: CN=SecureSign RootCA11, O="Japan Certification Services, Inc.", C=JP
  Issuer:  CN=SecureSign RootCA11, O="Japan Certification Services, Inc.", C=JP
  Algorithm: RSA; Serial number: 0x1
  Valid from Wed Apr 08 06:56:47 CEST 2009 until Sun Apr 08 06:56:47 CEST 2029

adding as trusted cert:
  Subject: CN=XRamp Global Certification Authority, O=XRamp Security Services Inc, OU=www.xrampsecurity.com, C=US
  Issuer:  CN=XRamp Global Certification Authority, O=XRamp Security Services Inc, OU=www.xrampsecurity.com, C=US
  Algorithm: RSA; Serial number: 0x50946cec18ead59c4dd597ef758fa0ad
  Valid from Mon Nov 01 18:14:04 CET 2004 until Mon Jan 01 06:37:19 CET 2035

adding as trusted cert:
  Subject: CN=Equifax Secure Global eBusiness CA-1, O=Equifax Secure Inc., C=US
  Issuer:  CN=Equifax Secure Global eBusiness CA-1, O=Equifax Secure Inc., C=US
  Algorithm: RSA; Serial number: 0x1
  Valid from Mon Jun 21 06:00:00 CEST 1999 until Sun Jun 21 06:00:00 CEST 2020

adding as trusted cert:
  Subject: CN=AffirmTrust Commercial, O=AffirmTrust, C=US
  Issuer:  CN=AffirmTrust Commercial, O=AffirmTrust, C=US
  Algorithm: RSA; Serial number: 0x7777062726a9b17c
  Valid from Fri Jan 29 15:06:06 CET 2010 until Tue Dec 31 15:06:06 CET 2030

adding as trusted cert:
  Subject: CN=IdenTrust Commercial Root CA 1, O=IdenTrust, C=US
  Issuer:  CN=IdenTrust Commercial Root CA 1, O=IdenTrust, C=US
  Algorithm: RSA; Serial number: 0xa0142800000014523c844b500000002
  Valid from Thu Jan 16 19:12:23 CET 2014 until Mon Jan 16 19:12:23 CET 2034

adding as trusted cert:
  Subject: CN=QuoVadis Root CA 3 G3, O=QuoVadis Limited, C=BM
  Issuer:  CN=QuoVadis Root CA 3 G3, O=QuoVadis Limited, C=BM
  Algorithm: RSA; Serial number: 0x2ef59b0228a7db7affd5a3a9eebd03a0cf126a1d
  Valid from Thu Jan 12 21:26:32 CET 2012 until Sun Jan 12 21:26:32 CET 2042

adding as trusted cert:
  Subject: CN=thawte Primary Root CA - G3, OU="(c) 2008 thawte, Inc. - For authorized use only", OU=Certification Services Division, O="thawte, Inc.", C=US
  Issuer:  CN=thawte Primary Root CA - G3, OU="(c) 2008 thawte, Inc. - For authorized use only", OU=Certification Services Division, O="thawte, Inc.", C=US
  Algorithm: RSA; Serial number: 0x600197b746a7eab4b49ad64b2ff790fb
  Valid from Wed Apr 02 02:00:00 CEST 2008 until Wed Dec 02 00:59:59 CET 2037

adding as trusted cert:
  Subject: CN=Juur-SK, O=AS Sertifitseerimiskeskus, C=EE, EMAILADDRESS=pki@sk.ee
  Issuer:  CN=Juur-SK, O=AS Sertifitseerimiskeskus, C=EE, EMAILADDRESS=pki@sk.ee
  Algorithm: RSA; Serial number: 0x3b8e4bfc
  Valid from Thu Aug 30 16:23:01 CEST 2001 until Fri Aug 26 16:23:01 CEST 2016

adding as trusted cert:
  Subject: CN=Baltimore CyberTrust Root, OU=CyberTrust, O=Baltimore, C=IE
  Issuer:  CN=Baltimore CyberTrust Root, OU=CyberTrust, O=Baltimore, C=IE
  Algorithm: RSA; Serial number: 0x20000b9
  Valid from Fri May 12 20:46:00 CEST 2000 until Tue May 13 01:59:00 CEST 2025

adding as trusted cert:
  Subject: CN=TÜBİTAK UEKAE Kök Sertifika Hizmet Sağlayıcısı - Sürüm 3, OU=Kamu Sertifikasyon Merkezi, OU=Ulusal Elektronik ve Kriptoloji Araştırma Enstitüsü - UEKAE, O=Türkiye Bilimsel ve Teknolojik Araştırma Kurumu - TÜBİTAK, L=Gebze - Kocaeli, C=TR
  Issuer:  CN=TÜBİTAK UEKAE Kök Sertifika Hizmet Sağlayıcısı - Sürüm 3, OU=Kamu Sertifikasyon Merkezi, OU=Ulusal Elektronik ve Kriptoloji Araştırma Enstitüsü - UEKAE, O=Türkiye Bilimsel ve Teknolojik Araştırma Kurumu - TÜBİTAK, L=Gebze - Kocaeli, C=TR
  Algorithm: RSA; Serial number: 0x11
  Valid from Fri Aug 24 13:37:07 CEST 2007 until Mon Aug 21 13:37:07 CEST 2017

adding as trusted cert:
  Subject: OU=Class 1 Public Primary Certification Authority, O="VeriSign, Inc.", C=US
  Issuer:  OU=Class 1 Public Primary Certification Authority, O="VeriSign, Inc.", C=US
  Algorithm: RSA; Serial number: 0x3f691e819cf09a4af373ffb948a2e4dd
  Valid from Mon Jan 29 01:00:00 CET 1996 until Thu Aug 03 01:59:59 CEST 2028

adding as trusted cert:
  Subject: OU=ePKI Root Certification Authority, O="Chunghwa Telecom Co., Ltd.", C=TW
  Issuer:  OU=ePKI Root Certification Authority, O="Chunghwa Telecom Co., Ltd.", C=TW
  Algorithm: RSA; Serial number: 0x15c8bd65475cafb897005ee406d2bc9d
  Valid from Mon Dec 20 03:31:27 CET 2004 until Wed Dec 20 03:31:27 CET 2034

adding as trusted cert:
  Subject: CN=TeliaSonera Root CA v1, O=TeliaSonera
  Issuer:  CN=TeliaSonera Root CA v1, O=TeliaSonera
  Algorithm: RSA; Serial number: 0x95be16a0f72e46f17b398272fa8bcd96
  Valid from Thu Oct 18 14:00:50 CEST 2007 until Mon Oct 18 14:00:50 CEST 2032

adding as trusted cert:
  Subject: CN=QuoVadis Root CA 2, O=QuoVadis Limited, C=BM
  Issuer:  CN=QuoVadis Root CA 2, O=QuoVadis Limited, C=BM
  Algorithm: RSA; Serial number: 0x509
  Valid from Fri Nov 24 19:27:00 CET 2006 until Mon Nov 24 19:23:33 CET 2031

adding as trusted cert:
  Subject: EMAILADDRESS=igca@sgdn.pm.gouv.fr, CN=IGC/A, OU=DCSSI, O=PM/SGDN, L=Paris, ST=France, C=FR
  Issuer:  EMAILADDRESS=igca@sgdn.pm.gouv.fr, CN=IGC/A, OU=DCSSI, O=PM/SGDN, L=Paris, ST=France, C=FR
  Algorithm: RSA; Serial number: 0x3911451094
  Valid from Fri Dec 13 15:29:23 CET 2002 until Sat Oct 17 16:29:22 CEST 2020

adding as trusted cert:
  Subject: CN=Entrust.net Certification Authority (2048), OU=(c) 1999 Entrust.net Limited, OU=www.entrust.net/CPS_2048 incorp. by ref. (limits liab.), O=Entrust.net
  Issuer:  CN=Entrust.net Certification Authority (2048), OU=(c) 1999 Entrust.net Limited, OU=www.entrust.net/CPS_2048 incorp. by ref. (limits liab.), O=Entrust.net
  Algorithm: RSA; Serial number: 0x3863def8
  Valid from Fri Dec 24 18:50:51 CET 1999 until Tue Jul 24 16:15:12 CEST 2029

adding as trusted cert:
  Subject: CN=Trusted Certificate Services, O=Comodo CA Limited, L=Salford, ST=Greater Manchester, C=GB
  Issuer:  CN=Trusted Certificate Services, O=Comodo CA Limited, L=Salford, ST=Greater Manchester, C=GB
  Algorithm: RSA; Serial number: 0x1
  Valid from Thu Jan 01 01:00:00 CET 2004 until Mon Jan 01 00:59:59 CET 2029

adding as trusted cert:
  Subject: CN=TÜRKTRUST Elektronik Sertifika Hizmet Sağlayıcısı H5, O=TÜRKTRUST Bilgi İletişim ve Bilişim Güvenliği Hizmetleri A.Ş., L=Ankara, C=TR
  Issuer:  CN=TÜRKTRUST Elektronik Sertifika Hizmet Sağlayıcısı H5, O=TÜRKTRUST Bilgi İletişim ve Bilişim Güvenliği Hizmetleri A.Ş., L=Ankara, C=TR
  Algorithm: RSA; Serial number: 0x8e17fe242081
  Valid from Tue Apr 30 10:07:01 CEST 2013 until Fri Apr 28 10:07:01 CEST 2023

adding as trusted cert:
  Subject: OU=VeriSign Trust Network, OU="(c) 1998 VeriSign, Inc. - For authorized use only", OU=Class 2 Public Primary Certification Authority - G2, O="VeriSign, Inc.", C=US
  Issuer:  OU=VeriSign Trust Network, OU="(c) 1998 VeriSign, Inc. - For authorized use only", OU=Class 2 Public Primary Certification Authority - G2, O="VeriSign, Inc.", C=US
  Algorithm: RSA; Serial number: 0xb92f60cc889fa17a4609b85b706c8aaf
  Valid from Mon May 18 02:00:00 CEST 1998 until Wed Aug 02 01:59:59 CEST 2028

adding as trusted cert:
  Subject: CN=COMODO Certification Authority, O=COMODO CA Limited, L=Salford, ST=Greater Manchester, C=GB
  Issuer:  CN=COMODO Certification Authority, O=COMODO CA Limited, L=Salford, ST=Greater Manchester, C=GB
  Algorithm: RSA; Serial number: 0x4e812d8a8265e00b02ee3e350246e53d
  Valid from Fri Dec 01 01:00:00 CET 2006 until Tue Jan 01 00:59:59 CET 2030

adding as trusted cert:
  Subject: OU=RSA Security 2048 V3, O=RSA Security Inc
  Issuer:  OU=RSA Security 2048 V3, O=RSA Security Inc
  Algorithm: RSA; Serial number: 0xa0101010000027c0000000a00000002
  Valid from Thu Feb 22 21:39:23 CET 2001 until Sun Feb 22 21:39:23 CET 2026

adding as trusted cert:
  Subject: CN=GeoTrust Global CA 2, O=GeoTrust Inc., C=US
  Issuer:  CN=GeoTrust Global CA 2, O=GeoTrust Inc., C=US
  Algorithm: RSA; Serial number: 0x1
  Valid from Thu Mar 04 06:00:00 CET 2004 until Mon Mar 04 06:00:00 CET 2019

adding as trusted cert:
  Subject: CN=GeoTrust Universal CA, O=GeoTrust Inc., C=US
  Issuer:  CN=GeoTrust Universal CA, O=GeoTrust Inc., C=US
  Algorithm: RSA; Serial number: 0x1
  Valid from Thu Mar 04 06:00:00 CET 2004 until Sun Mar 04 06:00:00 CET 2029

adding as trusted cert:
  Subject: CN=China Internet Network Information Center EV Certificates Root, O=China Internet Network Information Center, C=CN
  Issuer:  CN=China Internet Network Information Center EV Certificates Root, O=China Internet Network Information Center, C=CN
  Algorithm: RSA; Serial number: 0x489f0001
  Valid from Tue Aug 31 09:11:25 CEST 2010 until Sat Aug 31 09:11:25 CEST 2030

adding as trusted cert:
  Subject: CN=DigiCert Global Root G3, OU=www.digicert.com, O=DigiCert Inc, C=US
  Issuer:  CN=DigiCert Global Root G3, OU=www.digicert.com, O=DigiCert Inc, C=US
  Algorithm: EC; Serial number: 0x55556bcf25ea43535c3a40fd5ab4572
  Valid from Thu Aug 01 14:00:00 CEST 2013 until Fri Jan 15 13:00:00 CET 2038

adding as trusted cert:
  Subject: CN=GeoTrust Universal CA 2, O=GeoTrust Inc., C=US
  Issuer:  CN=GeoTrust Universal CA 2, O=GeoTrust Inc., C=US
  Algorithm: RSA; Serial number: 0x1
  Valid from Thu Mar 04 06:00:00 CET 2004 until Sun Mar 04 06:00:00 CET 2029

adding as trusted cert:
  Subject: CN=Certinomis - Autorité Racine, OU=0002 433998903, O=Certinomis, C=FR
  Issuer:  CN=Certinomis - Autorité Racine, OU=0002 433998903, O=Certinomis, C=FR
  Algorithm: RSA; Serial number: 0x1
  Valid from Wed Sep 17 10:28:59 CEST 2008 until Sun Sep 17 10:28:59 CEST 2028

adding as trusted cert:
  Subject: CN=DigiCert Global Root CA, OU=www.digicert.com, O=DigiCert Inc, C=US
  Issuer:  CN=DigiCert Global Root CA, OU=www.digicert.com, O=DigiCert Inc, C=US
  Algorithm: RSA; Serial number: 0x83be056904246b1a1756ac95991c74a
  Valid from Fri Nov 10 01:00:00 CET 2006 until Mon Nov 10 01:00:00 CET 2031

adding as trusted cert:
  Subject: CN=Class 2 Primary CA, O=Certplus, C=FR
  Issuer:  CN=Class 2 Primary CA, O=Certplus, C=FR
  Algorithm: RSA; Serial number: 0x85bd4bf3d8dae369f694d75fc3a54423
  Valid from Wed Jul 07 19:05:00 CEST 1999 until Sun Jul 07 01:59:59 CEST 2019

adding as trusted cert:
  Subject: CN=AddTrust External CA Root, OU=AddTrust External TTP Network, O=AddTrust AB, C=SE
  Issuer:  CN=AddTrust External CA Root, OU=AddTrust External TTP Network, O=AddTrust AB, C=SE
  Algorithm: RSA; Serial number: 0x1
  Valid from Tue May 30 12:48:38 CEST 2000 until Sat May 30 12:48:38 CEST 2020

adding as trusted cert:
  Subject: CN=NetLock Arany (Class Gold) Főtanúsítvány, OU=Tanúsítványkiadók (Certification Services), O=NetLock Kft., L=Budapest, C=HU
  Issuer:  CN=NetLock Arany (Class Gold) Főtanúsítvány, OU=Tanúsítványkiadók (Certification Services), O=NetLock Kft., L=Budapest, C=HU
  Algorithm: RSA; Serial number: 0x49412ce40010
  Valid from Thu Dec 11 16:08:21 CET 2008 until Wed Dec 06 16:08:21 CET 2028

adding as trusted cert:
  Subject: OU=Equifax Secure Certificate Authority, O=Equifax, C=US
  Issuer:  OU=Equifax Secure Certificate Authority, O=Equifax, C=US
  Algorithm: RSA; Serial number: 0x35def4cf
  Valid from Sat Aug 22 18:41:51 CEST 1998 until Wed Aug 22 18:41:51 CEST 2018

adding as trusted cert:
  Subject: OU=Starfield Class 2 Certification Authority, O="Starfield Technologies, Inc.", C=US
  Issuer:  OU=Starfield Class 2 Certification Authority, O="Starfield Technologies, Inc.", C=US
  Algorithm: RSA; Serial number: 0x0
  Valid from Tue Jun 29 19:39:16 CEST 2004 until Thu Jun 29 19:39:16 CEST 2034

adding as trusted cert:
  Subject: CN=Chambers of Commerce Root - 2008, O=AC Camerfirma S.A., SERIALNUMBER=A82743287, L=Madrid (see current address at www.camerfirma.com/address), C=EU
  Issuer:  CN=Chambers of Commerce Root - 2008, O=AC Camerfirma S.A., SERIALNUMBER=A82743287, L=Madrid (see current address at www.camerfirma.com/address), C=EU
  Algorithm: RSA; Serial number: 0xa3da427ea4b1aeda
  Valid from Fri Aug 01 14:29:50 CEST 2008 until Sat Jul 31 14:29:50 CEST 2038

adding as trusted cert:
  Subject: CN=Equifax Secure eBusiness CA-1, O=Equifax Secure Inc., C=US
  Issuer:  CN=Equifax Secure eBusiness CA-1, O=Equifax Secure Inc., C=US
  Algorithm: RSA; Serial number: 0x4
  Valid from Mon Jun 21 06:00:00 CEST 1999 until Sun Jun 21 06:00:00 CEST 2020

adding as trusted cert:
  Subject: CN=DigiCert Assured ID Root CA, OU=www.digicert.com, O=DigiCert Inc, C=US
  Issuer:  CN=DigiCert Assured ID Root CA, OU=www.digicert.com, O=DigiCert Inc, C=US
  Algorithm: RSA; Serial number: 0xce7e0e517d846fe8fe560fc1bf03039
  Valid from Fri Nov 10 01:00:00 CET 2006 until Mon Nov 10 01:00:00 CET 2031

adding as trusted cert:
  Subject: CN=Root CA Generalitat Valenciana, OU=PKIGVA, O=Generalitat Valenciana, C=ES
  Issuer:  CN=Root CA Generalitat Valenciana, OU=PKIGVA, O=Generalitat Valenciana, C=ES
  Algorithm: RSA; Serial number: 0x3b45e568
  Valid from Fri Jul 06 18:22:47 CEST 2001 until Thu Jul 01 17:22:47 CEST 2021

adding as trusted cert:
  Subject: CN=CFCA EV ROOT, O=China Financial Certification Authority, C=CN
  Issuer:  CN=CFCA EV ROOT, O=China Financial Certification Authority, C=CN
  Algorithm: RSA; Serial number: 0x184accd6
  Valid from Wed Aug 08 05:07:01 CEST 2012 until Mon Dec 31 04:07:01 CET 2029

adding as trusted cert:
  Subject: CN=GlobalSign Root CA, OU=Root CA, O=GlobalSign nv-sa, C=BE
  Issuer:  CN=GlobalSign Root CA, OU=Root CA, O=GlobalSign nv-sa, C=BE
  Algorithm: RSA; Serial number: 0x40000000001154b5ac394
  Valid from Tue Sep 01 14:00:00 CEST 1998 until Fri Jan 28 13:00:00 CET 2028

adding as trusted cert:
  Subject: CN=QuoVadis Root CA 3, O=QuoVadis Limited, C=BM
  Issuer:  CN=QuoVadis Root CA 3, O=QuoVadis Limited, C=BM
  Algorithm: RSA; Serial number: 0x5c6
  Valid from Fri Nov 24 20:11:23 CET 2006 until Mon Nov 24 20:06:44 CET 2031

adding as trusted cert:
  Subject: CN=DigiCert Trusted Root G4, OU=www.digicert.com, O=DigiCert Inc, C=US
  Issuer:  CN=DigiCert Trusted Root G4, OU=www.digicert.com, O=DigiCert Inc, C=US
  Algorithm: RSA; Serial number: 0x59b1b579e8e2132e23907bda777755c
  Valid from Thu Aug 01 14:00:00 CEST 2013 until Fri Jan 15 13:00:00 CET 2038

adding as trusted cert:
  Subject: CN=TWCA Global Root CA, OU=Root CA, O=TAIWAN-CA, C=TW
  Issuer:  CN=TWCA Global Root CA, OU=Root CA, O=TAIWAN-CA, C=TW
  Algorithm: RSA; Serial number: 0xcbe
  Valid from Wed Jun 27 08:28:33 CEST 2012 until Tue Dec 31 16:59:59 CET 2030

adding as trusted cert:
  Subject: CN=Certum CA, O=Unizeto Sp. z o.o., C=PL
  Issuer:  CN=Certum CA, O=Unizeto Sp. z o.o., C=PL
  Algorithm: RSA; Serial number: 0x10020
  Valid from Tue Jun 11 12:46:39 CEST 2002 until Fri Jun 11 12:46:39 CEST 2027

adding as trusted cert:
  Subject: CN=GlobalSign, O=GlobalSign, OU=GlobalSign Root CA - R2
  Issuer:  CN=GlobalSign, O=GlobalSign, OU=GlobalSign Root CA - R2
  Algorithm: RSA; Serial number: 0x400000000010f8626e60d
  Valid from Fri Dec 15 09:00:00 CET 2006 until Wed Dec 15 09:00:00 CET 2021

adding as trusted cert:
  Subject: CN=Certum Trusted Network CA 2, OU=Certum Certification Authority, O=Unizeto Technologies S.A., C=PL
  Issuer:  CN=Certum Trusted Network CA 2, OU=Certum Certification Authority, O=Unizeto Technologies S.A., C=PL
  Algorithm: RSA; Serial number: 0x21d6d04a4f250fc93237fcaa5e128de9
  Valid from Thu Oct 06 10:39:56 CEST 2011 until Sat Oct 06 10:39:56 CEST 2046

adding as trusted cert:
  Subject: CN=Chambers of Commerce Root, OU=http://www.chambersign.org, O=AC Camerfirma SA CIF A82743287, C=EU
  Issuer:  CN=Chambers of Commerce Root, OU=http://www.chambersign.org, O=AC Camerfirma SA CIF A82743287, C=EU
  Algorithm: RSA; Serial number: 0x0
  Valid from Tue Sep 30 18:13:43 CEST 2003 until Wed Sep 30 18:13:44 CEST 2037

adding as trusted cert:
  Subject: CN=Entrust Root Certification Authority - G2, OU="(c) 2009 Entrust, Inc. - for authorized use only", OU=See www.entrust.net/legal-terms, O="Entrust, Inc.", C=US
  Issuer:  CN=Entrust Root Certification Authority - G2, OU="(c) 2009 Entrust, Inc. - for authorized use only", OU=See www.entrust.net/legal-terms, O="Entrust, Inc.", C=US
  Algorithm: RSA; Serial number: 0x4a538c28
  Valid from Tue Jul 07 19:25:54 CEST 2009 until Sat Dec 07 18:55:54 CET 2030

adding as trusted cert:
  Subject: CN=Hellenic Academic and Research Institutions RootCA 2015, O=Hellenic Academic and Research Institutions Cert. Authority, L=Athens, C=GR
  Issuer:  CN=Hellenic Academic and Research Institutions RootCA 2015, O=Hellenic Academic and Research Institutions Cert. Authority, L=Athens, C=GR
  Algorithm: RSA; Serial number: 0x0
  Valid from Tue Jul 07 12:11:21 CEST 2015 until Sat Jun 30 12:11:21 CEST 2040

adding as trusted cert:
  Subject: CN=Hongkong Post Root CA 1, O=Hongkong Post, C=HK
  Issuer:  CN=Hongkong Post Root CA 1, O=Hongkong Post, C=HK
  Algorithm: RSA; Serial number: 0x3e8
  Valid from Thu May 15 07:13:14 CEST 2003 until Mon May 15 06:52:29 CEST 2023

adding as trusted cert:
  Subject: CN=VeriSign Class 3 Public Primary Certification Authority - G5, OU="(c) 2006 VeriSign, Inc. - For authorized use only", OU=VeriSign Trust Network, O="VeriSign, Inc.", C=US
  Issuer:  CN=VeriSign Class 3 Public Primary Certification Authority - G5, OU="(c) 2006 VeriSign, Inc. - For authorized use only", OU=VeriSign Trust Network, O="VeriSign, Inc.", C=US
  Algorithm: RSA; Serial number: 0x18dad19e267de8bb4a2158cdcc6b3b4a
  Valid from Wed Nov 08 01:00:00 CET 2006 until Thu Jul 17 01:59:59 CEST 2036

adding as trusted cert:
  Subject: CN=GeoTrust Global CA, O=GeoTrust Inc., C=US
  Issuer:  CN=GeoTrust Global CA, O=GeoTrust Inc., C=US
  Algorithm: RSA; Serial number: 0x23456
  Valid from Tue May 21 06:00:00 CEST 2002 until Sat May 21 06:00:00 CEST 2022

adding as trusted cert:
  Subject: CN=GlobalSign, O=GlobalSign, OU=GlobalSign ECC Root CA - R4
  Issuer:  CN=GlobalSign, O=GlobalSign, OU=GlobalSign ECC Root CA - R4
  Algorithm: EC; Serial number: 0x2a38a41c960a04de42b228a50be8349802
  Valid from Tue Nov 13 01:00:00 CET 2012 until Tue Jan 19 04:14:07 CET 2038

adding as trusted cert:
  Subject: C=DE, O=Atos, CN=Atos TrustedRoot 2011
  Issuer:  C=DE, O=Atos, CN=Atos TrustedRoot 2011
  Algorithm: RSA; Serial number: 0x5c33cb622c5fb332
  Valid from Thu Jul 07 16:58:30 CEST 2011 until Wed Jan 01 00:59:59 CET 2031

adding as trusted cert:
  Subject: OU=certSIGN ROOT CA, O=certSIGN, C=RO
  Issuer:  OU=certSIGN ROOT CA, O=certSIGN, C=RO
  Algorithm: RSA; Serial number: 0x200605167002
  Valid from Tue Jul 04 19:20:04 CEST 2006 until Fri Jul 04 19:20:04 CEST 2031

adding as trusted cert:
  Subject: OU=Go Daddy Class 2 Certification Authority, O="The Go Daddy Group, Inc.", C=US
  Issuer:  OU=Go Daddy Class 2 Certification Authority, O="The Go Daddy Group, Inc.", C=US
  Algorithm: RSA; Serial number: 0x0
  Valid from Tue Jun 29 19:06:20 CEST 2004 until Thu Jun 29 19:06:20 CEST 2034

adding as trusted cert:
  Subject: CN=UTN-USERFirst-Client Authentication and Email, OU=http://www.usertrust.com, O=The USERTRUST Network, L=Salt Lake City, ST=UT, C=US
  Issuer:  CN=UTN-USERFirst-Client Authentication and Email, OU=http://www.usertrust.com, O=The USERTRUST Network, L=Salt Lake City, ST=UT, C=US
  Algorithm: RSA; Serial number: 0x44be0c8b500024b411d336252567c989
  Valid from Fri Jul 09 19:28:50 CEST 1999 until Tue Jul 09 19:36:58 CEST 2019

adding as trusted cert:
  Subject: CN=UTN-USERFirst-Hardware, OU=http://www.usertrust.com, O=The USERTRUST Network, L=Salt Lake City, ST=UT, C=US
  Issuer:  CN=UTN-USERFirst-Hardware, OU=http://www.usertrust.com, O=The USERTRUST Network, L=Salt Lake City, ST=UT, C=US
  Algorithm: RSA; Serial number: 0x44be0c8b500024b411d3362afe650afd
  Valid from Fri Jul 09 20:10:42 CEST 1999 until Tue Jul 09 20:19:22 CEST 2019

adding as trusted cert:
  Subject: CN=GeoTrust Primary Certification Authority, O=GeoTrust Inc., C=US
  Issuer:  CN=GeoTrust Primary Certification Authority, O=GeoTrust Inc., C=US
  Algorithm: RSA; Serial number: 0x18acb56afd69b6153a636cafdafac4a1
  Valid from Mon Nov 27 01:00:00 CET 2006 until Thu Jul 17 01:59:59 CEST 2036

adding as trusted cert:
  Subject: CN=GeoTrust Primary Certification Authority - G2, OU=(c) 2007 GeoTrust Inc. - For authorized use only, O=GeoTrust Inc., C=US
  Issuer:  CN=GeoTrust Primary Certification Authority - G2, OU=(c) 2007 GeoTrust Inc. - For authorized use only, O=GeoTrust Inc., C=US
  Algorithm: EC; Serial number: 0x3cb2f4480a00e2feeb243b5e603ec36b
  Valid from Mon Nov 05 01:00:00 CET 2007 until Tue Jan 19 00:59:59 CET 2038

adding as trusted cert:
  Subject: CN=Microsec e-Szigno Root CA, OU=e-Szigno CA, O=Microsec Ltd., L=Budapest, C=HU
  Issuer:  CN=Microsec e-Szigno Root CA, OU=e-Szigno CA, O=Microsec Ltd., L=Budapest, C=HU
  Algorithm: RSA; Serial number: 0xccb8e7bf4e291afda2dc66a51c2c0f11
  Valid from Wed Apr 06 14:28:44 CEST 2005 until Thu Apr 06 14:28:44 CEST 2017

adding as trusted cert:
  Subject: CN=Buypass Class 2 Root CA, O=Buypass AS-983163327, C=NO
  Issuer:  CN=Buypass Class 2 Root CA, O=Buypass AS-983163327, C=NO
  Algorithm: RSA; Serial number: 0x2
  Valid from Tue Oct 26 10:38:03 CEST 2010 until Fri Oct 26 10:38:03 CEST 2040

adding as trusted cert:
  Subject: OU=Security Communication RootCA2, O="SECOM Trust Systems CO.,LTD.", C=JP
  Issuer:  OU=Security Communication RootCA2, O="SECOM Trust Systems CO.,LTD.", C=JP
  Algorithm: RSA; Serial number: 0x0
  Valid from Fri May 29 07:00:39 CEST 2009 until Tue May 29 07:00:39 CEST 2029

adding as trusted cert:
  Subject: CN=S-TRUST Universal Root CA, OU=S-TRUST Certification Services, O=Deutscher Sparkassen Verlag GmbH, C=DE
  Issuer:  CN=S-TRUST Universal Root CA, OU=S-TRUST Certification Services, O=Deutscher Sparkassen Verlag GmbH, C=DE
  Algorithm: RSA; Serial number: 0x6056c54b23405b64d4ed25dad9d61e1e
  Valid from Tue Oct 22 02:00:00 CEST 2013 until Fri Oct 22 01:59:59 CEST 2038

adding as trusted cert:
  Subject: CN=Swisscom Root CA 1, OU=Digital Certificate Services, O=Swisscom, C=ch
  Issuer:  CN=Swisscom Root CA 1, OU=Digital Certificate Services, O=Swisscom, C=ch
  Algorithm: RSA; Serial number: 0x5c0b855c0be75941df57cc3f7f9da836
  Valid from Thu Aug 18 14:06:20 CEST 2005 until Tue Aug 19 00:06:20 CEST 2025

adding as trusted cert:
  Subject: CN=WellsSecure Public Root Certificate Authority, OU=Wells Fargo Bank NA, O=Wells Fargo WellsSecure, C=US
  Issuer:  CN=WellsSecure Public Root Certificate Authority, OU=Wells Fargo Bank NA, O=Wells Fargo WellsSecure, C=US
  Algorithm: RSA; Serial number: 0x1
  Valid from Thu Dec 13 18:07:54 CET 2007 until Wed Dec 14 01:07:54 CET 2022

adding as trusted cert:
  Subject: CN=Hellenic Academic and Research Institutions RootCA 2011, O=Hellenic Academic and Research Institutions Cert. Authority, C=GR
  Issuer:  CN=Hellenic Academic and Research Institutions RootCA 2011, O=Hellenic Academic and Research Institutions Cert. Authority, C=GR
  Algorithm: RSA; Serial number: 0x0
  Valid from Tue Dec 06 14:49:52 CET 2011 until Mon Dec 01 14:49:52 CET 2031

adding as trusted cert:
  Subject: CN=DST Root CA X3, O=Digital Signature Trust Co.
  Issuer:  CN=DST Root CA X3, O=Digital Signature Trust Co.
  Algorithm: RSA; Serial number: 0x44afb080d6a327ba893039862ef8406b
  Valid from Sat Sep 30 23:12:19 CEST 2000 until Thu Sep 30 16:01:15 CEST 2021

adding as trusted cert:
  Subject: CN=CA WoSign ECC Root, O=WoSign CA Limited, C=CN
  Issuer:  CN=CA WoSign ECC Root, O=WoSign CA Limited, C=CN
  Algorithm: EC; Serial number: 0x684a5870806bf08f02faf6dee8b09090
  Valid from Sat Nov 08 01:58:58 CET 2014 until Tue Nov 08 01:58:58 CET 2044

adding as trusted cert:
  Subject: CN=OpenTrust Root CA G1, O=OpenTrust, C=FR
  Issuer:  CN=OpenTrust Root CA G1, O=OpenTrust, C=FR
  Algorithm: RSA; Serial number: 0x1120b39055397d7f366d64c2a79f6b638e67
  Valid from Mon May 26 10:45:50 CEST 2014 until Fri Jan 15 01:00:00 CET 2038

adding as trusted cert:
  Subject: O=TÜRKTRUST Bilgi İletişim ve Bilişim Güvenliği Hizmetleri A.Ş. (c) Aralık 2007, L=Ankara, C=TR, CN=TÜRKTRUST Elektronik Sertifika Hizmet Sağlayıcısı
  Issuer:  O=TÜRKTRUST Bilgi İletişim ve Bilişim Güvenliği Hizmetleri A.Ş. (c) Aralık 2007, L=Ankara, C=TR, CN=TÜRKTRUST Elektronik Sertifika Hizmet Sağlayıcısı
  Algorithm: RSA; Serial number: 0x1
  Valid from Tue Dec 25 19:37:19 CET 2007 until Fri Dec 22 19:37:19 CET 2017

adding as trusted cert:
  Subject: CN=Actalis Authentication Root CA, O=Actalis S.p.A./03358520967, L=Milan, C=IT
  Issuer:  CN=Actalis Authentication Root CA, O=Actalis S.p.A./03358520967, L=Milan, C=IT
  Algorithm: RSA; Serial number: 0x570a119742c4e3cc
  Valid from Thu Sep 22 13:22:02 CEST 2011 until Sun Sep 22 13:22:02 CEST 2030

adding as trusted cert:
  Subject: CN=QuoVadis Root CA 1 G3, O=QuoVadis Limited, C=BM
  Issuer:  CN=QuoVadis Root CA 1 G3, O=QuoVadis Limited, C=BM
  Algorithm: RSA; Serial number: 0x78585f2ead2c194be3370735341328b596d46593
  Valid from Thu Jan 12 18:27:44 CET 2012 until Sun Jan 12 18:27:44 CET 2042

adding as trusted cert:
  Subject: CN=Certinomis - Root CA, OU=0002 433998903, O=Certinomis, C=FR
  Issuer:  CN=Certinomis - Root CA, OU=0002 433998903, O=Certinomis, C=FR
  Algorithm: RSA; Serial number: 0x1
  Valid from Mon Oct 21 11:17:18 CEST 2013 until Fri Oct 21 11:17:18 CEST 2033

adding as trusted cert:
  Subject: CN=Swisscom Root CA 2, OU=Digital Certificate Services, O=Swisscom, C=ch
  Issuer:  CN=Swisscom Root CA 2, OU=Digital Certificate Services, O=Swisscom, C=ch
  Algorithm: RSA; Serial number: 0x1e9e28e848f2e5efc37c4a1e5a1867b6
  Valid from Fri Jun 24 10:38:14 CEST 2011 until Wed Jun 25 09:38:14 CEST 2031

adding as trusted cert:
  Subject: CN=StartCom Certification Authority G2, O=StartCom Ltd., C=IL
  Issuer:  CN=StartCom Certification Authority G2, O=StartCom Ltd., C=IL
  Algorithm: RSA; Serial number: 0x3b
  Valid from Fri Jan 01 02:00:01 CET 2010 until Sun Jan 01 00:59:01 CET 2040

adding as trusted cert:
  Subject: CN=Cybertrust Global Root, O="Cybertrust, Inc"
  Issuer:  CN=Cybertrust Global Root, O="Cybertrust, Inc"
  Algorithm: RSA; Serial number: 0x400000000010f85aa2d48
  Valid from Fri Dec 15 09:00:00 CET 2006 until Wed Dec 15 09:00:00 CET 2021

adding as trusted cert:
  Subject: CN=TC TrustCenter Class 3 CA II, OU=TC TrustCenter Class 3 CA, O=TC TrustCenter GmbH, C=DE
  Issuer:  CN=TC TrustCenter Class 3 CA II, OU=TC TrustCenter Class 3 CA, O=TC TrustCenter GmbH, C=DE
  Algorithm: RSA; Serial number: 0x4a4700010002e5a05dd63f0051bf
  Valid from Thu Jan 12 15:41:57 CET 2006 until Wed Dec 31 23:59:59 CET 2025

adding as trusted cert:
  Subject: CN=OpenTrust Root CA G2, O=OpenTrust, C=FR
  Issuer:  CN=OpenTrust Root CA G2, O=OpenTrust, C=FR
  Algorithm: RSA; Serial number: 0x1120a1691bbfbdb9bd52968f23e848bf2611
  Valid from Mon May 26 02:00:00 CEST 2014 until Fri Jan 15 01:00:00 CET 2038

adding as trusted cert:
  Subject: CN=StartCom Certification Authority, OU=Secure Digital Certificate Signing, O=StartCom Ltd., C=IL
  Issuer:  CN=StartCom Certification Authority, OU=Secure Digital Certificate Signing, O=StartCom Ltd., C=IL
  Algorithm: RSA; Serial number: 0x2d
  Valid from Sun Sep 17 21:46:37 CEST 2006 until Wed Sep 17 21:46:36 CEST 2036

adding as trusted cert:
  Subject: CN=SwissSign Platinum CA - G2, O=SwissSign AG, C=CH
  Issuer:  CN=SwissSign Platinum CA - G2, O=SwissSign AG, C=CH
  Algorithm: RSA; Serial number: 0x4eb200670c035d4f
  Valid from Wed Oct 25 10:36:00 CEST 2006 until Sat Oct 25 10:36:00 CEST 2036

adding as trusted cert:
  Subject: CN=IdenTrust Public Sector Root CA 1, O=IdenTrust, C=US
  Issuer:  CN=IdenTrust Public Sector Root CA 1, O=IdenTrust, C=US
  Algorithm: RSA; Serial number: 0xa0142800000014523cf467c00000002
  Valid from Thu Jan 16 18:53:32 CET 2014 until Mon Jan 16 18:53:32 CET 2034

adding as trusted cert:
  Subject: CN=AddTrust Public CA Root, OU=AddTrust TTP Network, O=AddTrust AB, C=SE
  Issuer:  CN=AddTrust Public CA Root, OU=AddTrust TTP Network, O=AddTrust AB, C=SE
  Algorithm: RSA; Serial number: 0x1
  Valid from Tue May 30 12:41:50 CEST 2000 until Sat May 30 12:41:50 CEST 2020

adding as trusted cert:
  Subject: CN=thawte Primary Root CA, OU="(c) 2006 thawte, Inc. - For authorized use only", OU=Certification Services Division, O="thawte, Inc.", C=US
  Issuer:  CN=thawte Primary Root CA, OU="(c) 2006 thawte, Inc. - For authorized use only", OU=Certification Services Division, O="thawte, Inc.", C=US
  Algorithm: RSA; Serial number: 0x344ed55720d5edec49f42fce37db2b6d
  Valid from Fri Nov 17 01:00:00 CET 2006 until Thu Jul 17 01:59:59 CEST 2036

adding as trusted cert:
  Subject: CN=DST ACES CA X6, OU=DST ACES, O=Digital Signature Trust, C=US
  Issuer:  CN=DST ACES CA X6, OU=DST ACES, O=Digital Signature Trust, C=US
  Algorithm: RSA; Serial number: 0xd5e990ad69db778ecd807563b8615d9
  Valid from Thu Nov 20 22:19:58 CET 2003 until Mon Nov 20 22:19:58 CET 2017

adding as trusted cert:
  Subject: CN=Entrust Root Certification Authority, OU="(c) 2006 Entrust, Inc.", OU=www.entrust.net/CPS is incorporated by reference, O="Entrust, Inc.", C=US
  Issuer:  CN=Entrust Root Certification Authority, OU="(c) 2006 Entrust, Inc.", OU=www.entrust.net/CPS is incorporated by reference, O="Entrust, Inc.", C=US
  Algorithm: RSA; Serial number: 0x456b5054
  Valid from Mon Nov 27 21:23:42 CET 2006 until Fri Nov 27 21:53:42 CET 2026

adding as trusted cert:
  Subject: CN=Certification Authority of WoSign G2, O=WoSign CA Limited, C=CN
  Issuer:  CN=Certification Authority of WoSign G2, O=WoSign CA Limited, C=CN
  Algorithm: RSA; Serial number: 0x6b25da8a889d7cbc0f05b3b17a614544
  Valid from Sat Nov 08 01:58:58 CET 2014 until Tue Nov 08 01:58:58 CET 2044

adding as trusted cert:
  Subject: CN=PSCProcert, C=VE, O=Sistema Nacional de Certificacion Electronica, OU=Proveedor de Certificados PROCERT, ST=Miranda, L=Chacao, EMAILADDRESS=contacto@procert.net.ve
  Issuer:  EMAILADDRESS=acraiz@suscerte.gob.ve, OU=Superintendencia de Servicios de Certificacion Electronica, O=Sistema Nacional de Certificacion Electronica, ST=Distrito Capital, L=Caracas, C=VE, CN=Autoridad de Certificacion Raiz del Estado Venezolano
  Algorithm: RSA; Serial number: 0xb
  Valid from Tue Dec 28 17:51:00 CET 2010 until Sat Dec 26 00:59:59 CET 2020

adding as trusted cert:
  Subject: OU=ApplicationCA, O=Japanese Government, C=JP
  Issuer:  OU=ApplicationCA, O=Japanese Government, C=JP
  Algorithm: RSA; Serial number: 0x31
  Valid from Wed Dec 12 16:00:00 CET 2007 until Tue Dec 12 16:00:00 CET 2017

adding as trusted cert:
  Subject: CN=OISTE WISeKey Global Root GB CA, OU=OISTE Foundation Endorsed, O=WISeKey, C=CH
  Issuer:  CN=OISTE WISeKey Global Root GB CA, OU=OISTE Foundation Endorsed, O=WISeKey, C=CH
  Algorithm: RSA; Serial number: 0x76b1205274f0858746b3f8231af6c2c0
  Valid from Mon Dec 01 16:00:32 CET 2014 until Thu Dec 01 16:10:31 CET 2039

adding as trusted cert:
  Subject: CN=Staat der Nederlanden Root CA - G3, O=Staat der Nederlanden, C=NL
  Issuer:  CN=Staat der Nederlanden Root CA - G3, O=Staat der Nederlanden, C=NL
  Algorithm: RSA; Serial number: 0x98a239
  Valid from Thu Nov 14 12:28:42 CET 2013 until Tue Nov 14 00:00:00 CET 2028

adding as trusted cert:
  Subject: CN=SwissSign Silver CA - G2, O=SwissSign AG, C=CH
  Issuer:  CN=SwissSign Silver CA - G2, O=SwissSign AG, C=CH
  Algorithm: RSA; Serial number: 0x4f1bd42f54bb2f4b
  Valid from Wed Oct 25 10:32:46 CEST 2006 until Sat Oct 25 10:32:46 CEST 2036

adding as trusted cert:
  Subject: CN=Izenpe.com, O=IZENPE S.A., C=ES
  Issuer:  CN=Izenpe.com, O=IZENPE S.A., C=ES
  Algorithm: RSA; Serial number: 0xb0b75a16485fbfe1cbf58bd719e67d
  Valid from Thu Dec 13 14:08:28 CET 2007 until Sun Dec 13 09:27:25 CET 2037

adding as trusted cert:
  Subject: OU=Security Communication EV RootCA1, O="SECOM Trust Systems CO.,LTD.", C=JP
  Issuer:  OU=Security Communication EV RootCA1, O="SECOM Trust Systems CO.,LTD.", C=JP
  Algorithm: RSA; Serial number: 0x0
  Valid from Wed Jun 06 04:12:32 CEST 2007 until Sat Jun 06 04:12:32 CEST 2037

adding as trusted cert:
  Subject: CN=DigiCert Assured ID Root G2, OU=www.digicert.com, O=DigiCert Inc, C=US
  Issuer:  CN=DigiCert Assured ID Root G2, OU=www.digicert.com, O=DigiCert Inc, C=US
  Algorithm: RSA; Serial number: 0xb931c3ad63967ea6723bfc3af9af44b
  Valid from Thu Aug 01 14:00:00 CEST 2013 until Fri Jan 15 13:00:00 CET 2038

adding as trusted cert:
  Subject: CN=SwissSign Gold CA - G2, O=SwissSign AG, C=CH
  Issuer:  CN=SwissSign Gold CA - G2, O=SwissSign AG, C=CH
  Algorithm: RSA; Serial number: 0xbb401c43f55e4fb0
  Valid from Wed Oct 25 10:30:35 CEST 2006 until Sat Oct 25 10:30:35 CEST 2036

adding as trusted cert:
  Subject: CN=Hellenic Academic and Research Institutions ECC RootCA 2015, O=Hellenic Academic and Research Institutions Cert. Authority, L=Athens, C=GR
  Issuer:  CN=Hellenic Academic and Research Institutions ECC RootCA 2015, O=Hellenic Academic and Research Institutions Cert. Authority, L=Athens, C=GR
  Algorithm: EC; Serial number: 0x0
  Valid from Tue Jul 07 12:37:12 CEST 2015 until Sat Jun 30 12:37:12 CEST 2040

adding as trusted cert:
  Subject: CN=Swisscom Root EV CA 2, OU=Digital Certificate Services, O=Swisscom, C=ch
  Issuer:  CN=Swisscom Root EV CA 2, OU=Digital Certificate Services, O=Swisscom, C=ch
  Algorithm: RSA; Serial number: 0xf2fa64e27463d38dfd101d041f76ca58
  Valid from Fri Jun 24 11:45:08 CEST 2011 until Wed Jun 25 10:45:08 CEST 2031

adding as trusted cert:
  Subject: CN=Global Chambersign Root, OU=http://www.chambersign.org, O=AC Camerfirma SA CIF A82743287, C=EU
  Issuer:  CN=Global Chambersign Root, OU=http://www.chambersign.org, O=AC Camerfirma SA CIF A82743287, C=EU
  Algorithm: RSA; Serial number: 0x0
  Valid from Tue Sep 30 18:14:18 CEST 2003 until Wed Sep 30 18:14:18 CEST 2037

adding as trusted cert:
  Subject: EMAILADDRESS=pki@sk.ee, CN=EE Certification Centre Root CA, O=AS Sertifitseerimiskeskus, C=EE
  Issuer:  EMAILADDRESS=pki@sk.ee, CN=EE Certification Centre Root CA, O=AS Sertifitseerimiskeskus, C=EE
  Algorithm: RSA; Serial number: 0x5480f9a073ed3f004cca89d8e371e64a
  Valid from Sat Oct 30 12:10:30 CEST 2010 until Wed Dec 18 00:59:59 CET 2030

adding as trusted cert:
  Subject: CN=Secure Certificate Services, O=Comodo CA Limited, L=Salford, ST=Greater Manchester, C=GB
  Issuer:  CN=Secure Certificate Services, O=Comodo CA Limited, L=Salford, ST=Greater Manchester, C=GB
  Algorithm: RSA; Serial number: 0x1
  Valid from Thu Jan 01 01:00:00 CET 2004 until Mon Jan 01 00:59:59 CET 2029

adding as trusted cert:
  Subject: CN=CA Disig Root R1, O=Disig a.s., L=Bratislava, C=SK
  Issuer:  CN=CA Disig Root R1, O=Disig a.s., L=Bratislava, C=SK
  Algorithm: RSA; Serial number: 0xc3039aee50906e28
  Valid from Thu Jul 19 11:06:56 CEST 2012 until Sat Jul 19 11:06:56 CEST 2042

adding as trusted cert:
  Subject: EMAILADDRESS=info@e-szigno.hu, CN=Microsec e-Szigno Root CA 2009, O=Microsec Ltd., L=Budapest, C=HU
  Issuer:  EMAILADDRESS=info@e-szigno.hu, CN=Microsec e-Szigno Root CA 2009, O=Microsec Ltd., L=Budapest, C=HU
  Algorithm: RSA; Serial number: 0xc27e43044e473f19
  Valid from Tue Jun 16 13:30:18 CEST 2009 until Sun Dec 30 12:30:18 CET 2029

adding as trusted cert:
  Subject: CN=Starfield Services Root Certificate Authority - G2, O="Starfield Technologies, Inc.", L=Scottsdale, ST=Arizona, C=US
  Issuer:  CN=Starfield Services Root Certificate Authority - G2, O="Starfield Technologies, Inc.", L=Scottsdale, ST=Arizona, C=US
  Algorithm: RSA; Serial number: 0x0
  Valid from Tue Sep 01 02:00:00 CEST 2009 until Fri Jan 01 00:59:59 CET 2038

adding as trusted cert:
  Subject: OU=Class 3 Public Primary Certification Authority, O="VeriSign, Inc.", C=US
  Issuer:  OU=Class 3 Public Primary Certification Authority, O="VeriSign, Inc.", C=US
  Algorithm: RSA; Serial number: 0x70bae41d10d92934b638ca7b03ccbabf
  Valid from Mon Jan 29 01:00:00 CET 1996 until Wed Aug 02 01:59:59 CEST 2028

adding as trusted cert:
  Subject: CN=Certification Authority of WoSign, O=WoSign CA Limited, C=CN
  Issuer:  CN=Certification Authority of WoSign, O=WoSign CA Limited, C=CN
  Algorithm: RSA; Serial number: 0x5e68d61171946350560068f33ec9c591
  Valid from Sat Aug 08 03:00:01 CEST 2009 until Mon Aug 08 03:00:01 CEST 2039

adding as trusted cert:
  Subject: CN=DigiCert High Assurance EV Root CA, OU=www.digicert.com, O=DigiCert Inc, C=US
  Issuer:  CN=DigiCert High Assurance EV Root CA, OU=www.digicert.com, O=DigiCert Inc, C=US
  Algorithm: RSA; Serial number: 0x2ac5c266a0b409b8f0b79f2ae462577
  Valid from Fri Nov 10 01:00:00 CET 2006 until Mon Nov 10 01:00:00 CET 2031

adding as trusted cert:
  Subject: CN=T-TeleSec GlobalRoot Class 3, OU=T-Systems Trust Center, O=T-Systems Enterprise Services GmbH, C=DE
  Issuer:  CN=T-TeleSec GlobalRoot Class 3, OU=T-Systems Trust Center, O=T-Systems Enterprise Services GmbH, C=DE
  Algorithm: RSA; Serial number: 0x1
  Valid from Wed Oct 01 12:29:56 CEST 2008 until Sun Oct 02 01:59:59 CEST 2033

adding as trusted cert:
  Subject: CN=Staat der Nederlanden EV Root CA, O=Staat der Nederlanden, C=NL
  Issuer:  CN=Staat der Nederlanden EV Root CA, O=Staat der Nederlanden, C=NL
  Algorithm: RSA; Serial number: 0x98968d
  Valid from Wed Dec 08 12:19:29 CET 2010 until Thu Dec 08 12:10:28 CET 2022

adding as trusted cert:
  Subject: CN=USERTrust RSA Certification Authority, O=The USERTRUST Network, L=Jersey City, ST=New Jersey, C=US
  Issuer:  CN=USERTrust RSA Certification Authority, O=The USERTRUST Network, L=Jersey City, ST=New Jersey, C=US
  Algorithm: RSA; Serial number: 0x1fd6d30fca3ca51a81bbc640e35032d
  Valid from Mon Feb 01 01:00:00 CET 2010 until Tue Jan 19 00:59:59 CET 2038

adding as trusted cert:
  Subject: CN=Entrust Root Certification Authority - EC1, OU="(c) 2012 Entrust, Inc. - for authorized use only", OU=See www.entrust.net/legal-terms, O="Entrust, Inc.", C=US
  Issuer:  CN=Entrust Root Certification Authority - EC1, OU="(c) 2012 Entrust, Inc. - for authorized use only", OU=See www.entrust.net/legal-terms, O="Entrust, Inc.", C=US
  Algorithm: EC; Serial number: 0xa68b79290000000050d091f9
  Valid from Tue Dec 18 16:25:36 CET 2012 until Fri Dec 18 16:55:36 CET 2037

adding as trusted cert:
  Subject: CN=thawte Primary Root CA - G2, OU="(c) 2007 thawte, Inc. - For authorized use only", O="thawte, Inc.", C=US
  Issuer:  CN=thawte Primary Root CA - G2, OU="(c) 2007 thawte, Inc. - For authorized use only", O="thawte, Inc.", C=US
  Algorithm: EC; Serial number: 0x35fc265cd9844fc93d263d579baed756
  Valid from Mon Nov 05 01:00:00 CET 2007 until Tue Jan 19 00:59:59 CET 2038

adding as trusted cert:
  Subject: CN=D-TRUST Root Class 3 CA 2 2009, O=D-Trust GmbH, C=DE
  Issuer:  CN=D-TRUST Root Class 3 CA 2 2009, O=D-Trust GmbH, C=DE
  Algorithm: RSA; Serial number: 0x983f3
  Valid from Thu Nov 05 09:35:58 CET 2009 until Mon Nov 05 09:35:58 CET 2029

adding as trusted cert:
  Subject: CN=Deutsche Telekom Root CA 2, OU=T-TeleSec Trust Center, O=Deutsche Telekom AG, C=DE
  Issuer:  CN=Deutsche Telekom Root CA 2, OU=T-TeleSec Trust Center, O=Deutsche Telekom AG, C=DE
  Algorithm: RSA; Serial number: 0x26
  Valid from Fri Jul 09 14:11:00 CEST 1999 until Wed Jul 10 01:59:00 CEST 2019

adding as trusted cert:
  Subject: CN=SZAFIR ROOT CA2, O=Krajowa Izba Rozliczeniowa S.A., C=PL
  Issuer:  CN=SZAFIR ROOT CA2, O=Krajowa Izba Rozliczeniowa S.A., C=PL
  Algorithm: RSA; Serial number: 0x3e8a5d07ec55d232d5b7e3b65f01eb2ddce4d6e4
  Valid from Mon Oct 19 09:43:30 CEST 2015 until Fri Oct 19 09:43:30 CEST 2035

adding as trusted cert:
  Subject: CN=T-TeleSec GlobalRoot Class 2, OU=T-Systems Trust Center, O=T-Systems Enterprise Services GmbH, C=DE
  Issuer:  CN=T-TeleSec GlobalRoot Class 2, OU=T-Systems Trust Center, O=T-Systems Enterprise Services GmbH, C=DE
  Algorithm: RSA; Serial number: 0x1
  Valid from Wed Oct 01 12:40:14 CEST 2008 until Sun Oct 02 01:59:59 CEST 2033

adding as trusted cert:
  Subject: CN=EC-ACC, OU=Jerarquia Entitats de Certificacio Catalanes, OU=Vegeu https://www.catcert.net/verarrel (c)03, OU=Serveis Publics de Certificacio, O=Agencia Catalana de Certificacio (NIF Q-0801176-I), C=ES
  Issuer:  CN=EC-ACC, OU=Jerarquia Entitats de Certificacio Catalanes, OU=Vegeu https://www.catcert.net/verarrel (c)03, OU=Serveis Publics de Certificacio, O=Agencia Catalana de Certificacio (NIF Q-0801176-I), C=ES
  Algorithm: RSA; Serial number: 0x-11d4c2142bde21eb579d53fb0c223bff
  Valid from Wed Jan 08 00:00:00 CET 2003 until Tue Jan 07 23:59:59 CET 2031

adding as trusted cert:
  Subject: CN=VeriSign Class 3 Public Primary Certification Authority - G3, OU="(c) 1999 VeriSign, Inc. - For authorized use only", OU=VeriSign Trust Network, O="VeriSign, Inc.", C=US
  Issuer:  CN=VeriSign Class 3 Public Primary Certification Authority - G3, OU="(c) 1999 VeriSign, Inc. - For authorized use only", OU=VeriSign Trust Network, O="VeriSign, Inc.", C=US
  Algorithm: RSA; Serial number: 0x9b7e0649a33e62b9d5ee90487129ef57
  Valid from Fri Oct 01 02:00:00 CEST 1999 until Thu Jul 17 01:59:59 CEST 2036

adding as trusted cert:
  Subject: CN=AddTrust Class 1 CA Root, OU=AddTrust TTP Network, O=AddTrust AB, C=SE
  Issuer:  CN=AddTrust Class 1 CA Root, OU=AddTrust TTP Network, O=AddTrust AB, C=SE
  Algorithm: RSA; Serial number: 0x1
  Valid from Tue May 30 12:38:31 CEST 2000 until Sat May 30 12:38:31 CEST 2020

adding as trusted cert:
  Subject: CN=Visa eCommerce Root, OU=Visa International Service Association, O=VISA, C=US
  Issuer:  CN=Visa eCommerce Root, OU=Visa International Service Association, O=VISA, C=US
  Algorithm: RSA; Serial number: 0x1386354d1d3f06f2c1f96505d5901c62
  Valid from Wed Jun 26 04:18:36 CEST 2002 until Fri Jun 24 02:16:12 CEST 2022

adding as trusted cert:
  Subject: CN=Network Solutions Certificate Authority, O=Network Solutions L.L.C., C=US
  Issuer:  CN=Network Solutions Certificate Authority, O=Network Solutions L.L.C., C=US
  Algorithm: RSA; Serial number: 0x57cb336fc25c16e6471617e3903168e0
  Valid from Fri Dec 01 01:00:00 CET 2006 until Tue Jan 01 00:59:59 CET 2030

adding as trusted cert:
  Subject: CN=CNNIC ROOT, O=CNNIC, C=CN
  Issuer:  CN=CNNIC ROOT, O=CNNIC, C=CN
  Algorithm: RSA; Serial number: 0x49330001
  Valid from Mon Apr 16 09:09:14 CEST 2007 until Fri Apr 16 09:09:14 CEST 2027

adding as trusted cert:
  Subject: CN=Certplus Root CA G2, O=Certplus, C=FR
  Issuer:  CN=Certplus Root CA G2, O=Certplus, C=FR
  Algorithm: EC; Serial number: 0x1120d991ceaea3e8c5e7ffe902afcf73bc55
  Valid from Mon May 26 02:00:00 CEST 2014 until Fri Jan 15 01:00:00 CET 2038

adding as trusted cert:
  Subject: CN=AAA Certificate Services, O=Comodo CA Limited, L=Salford, ST=Greater Manchester, C=GB
  Issuer:  CN=AAA Certificate Services, O=Comodo CA Limited, L=Salford, ST=Greater Manchester, C=GB
  Algorithm: RSA; Serial number: 0x1
  Valid from Thu Jan 01 01:00:00 CET 2004 until Mon Jan 01 00:59:59 CET 2029

adding as trusted cert:
  Subject: CN=VeriSign Class 2 Public Primary Certification Authority - G3, OU="(c) 1999 VeriSign, Inc. - For authorized use only", OU=VeriSign Trust Network, O="VeriSign, Inc.", C=US
  Issuer:  CN=VeriSign Class 2 Public Primary Certification Authority - G3, OU="(c) 1999 VeriSign, Inc. - For authorized use only", OU=VeriSign Trust Network, O="VeriSign, Inc.", C=US
  Algorithm: RSA; Serial number: 0x6170cb498c5f984529e7b0a6d9505b7a
  Valid from Fri Oct 01 02:00:00 CEST 1999 until Thu Jul 17 01:59:59 CEST 2036

adding as trusted cert:
  Subject: CN=Staat der Nederlanden Root CA - G2, O=Staat der Nederlanden, C=NL
  Issuer:  CN=Staat der Nederlanden Root CA - G2, O=Staat der Nederlanden, C=NL
  Algorithm: RSA; Serial number: 0x98968c
  Valid from Wed Mar 26 12:18:17 CET 2008 until Wed Mar 25 12:03:10 CET 2020

adding as trusted cert:
  Subject: CN=TÜRKTRUST Elektronik Sertifika Hizmet Sağlayıcısı H6, O=TÜRKTRUST Bilgi İletişim ve Bilişim Güvenliği Hizmetleri A.Ş., L=Ankara, C=TR
  Issuer:  CN=TÜRKTRUST Elektronik Sertifika Hizmet Sağlayıcısı H6, O=TÜRKTRUST Bilgi İletişim ve Bilişim Güvenliği Hizmetleri A.Ş., L=Ankara, C=TR
  Algorithm: RSA; Serial number: 0x7da1f265ec8a
  Valid from Wed Dec 18 10:04:10 CET 2013 until Sat Dec 16 10:04:10 CET 2023

adding as trusted cert:
  Subject: CN=COMODO RSA Certification Authority, O=COMODO CA Limited, L=Salford, ST=Greater Manchester, C=GB
  Issuer:  CN=COMODO RSA Certification Authority, O=COMODO CA Limited, L=Salford, ST=Greater Manchester, C=GB
  Algorithm: RSA; Serial number: 0x4caaf9cadb636fe01ff74ed85b03869d
  Valid from Tue Jan 19 01:00:00 CET 2010 until Tue Jan 19 00:59:59 CET 2038

adding as trusted cert:
  Subject: CN=Certigna, O=Dhimyotis, C=FR
  Issuer:  CN=Certigna, O=Dhimyotis, C=FR
  Algorithm: RSA; Serial number: 0xfedce3010fc948ff
  Valid from Fri Jun 29 17:13:05 CEST 2007 until Tue Jun 29 17:13:05 CEST 2027

adding as trusted cert:
  Subject: CN=CA 沃通根证书, O=WoSign CA Limited, C=CN
  Issuer:  CN=CA 沃通根证书, O=WoSign CA Limited, C=CN
  Algorithm: RSA; Serial number: 0x50706bcdd813fc1b4e3b3372d211488d
  Valid from Sat Aug 08 03:00:01 CEST 2009 until Mon Aug 08 03:00:01 CEST 2039

adding as trusted cert:
  Subject: CN=CA Disig Root R2, O=Disig a.s., L=Bratislava, C=SK
  Issuer:  CN=CA Disig Root R2, O=Disig a.s., L=Bratislava, C=SK
  Algorithm: RSA; Serial number: 0x92b888dbb08ac163
  Valid from Thu Jul 19 11:15:30 CEST 2012 until Sat Jul 19 11:15:30 CEST 2042

adding as trusted cert:
  Subject: CN=D-TRUST Root Class 3 CA 2 EV 2009, O=D-Trust GmbH, C=DE
  Issuer:  CN=D-TRUST Root Class 3 CA 2 EV 2009, O=D-Trust GmbH, C=DE
  Algorithm: RSA; Serial number: 0x983f4
  Valid from Thu Nov 05 09:50:46 CET 2009 until Mon Nov 05 09:50:46 CET 2029

adding as trusted cert:
  Subject: CN=DigiCert Global Root G2, OU=www.digicert.com, O=DigiCert Inc, C=US
  Issuer:  CN=DigiCert Global Root G2, OU=www.digicert.com, O=DigiCert Inc, C=US
  Algorithm: RSA; Serial number: 0x33af1e6a711a9a0bb2864b11d09fae5
  Valid from Thu Aug 01 14:00:00 CEST 2013 until Fri Jan 15 13:00:00 CET 2038

adding as trusted cert:
  Subject: CN=SecureTrust CA, O=SecureTrust Corporation, C=US
  Issuer:  CN=SecureTrust CA, O=SecureTrust Corporation, C=US
  Algorithm: RSA; Serial number: 0xcf08e5c0816a5ad427ff0eb271859d0
  Valid from Tue Nov 07 20:31:18 CET 2006 until Mon Dec 31 20:40:55 CET 2029

adding as trusted cert:
  Subject: CN=TWCA Root Certification Authority, OU=Root CA, O=TAIWAN-CA, C=TW
  Issuer:  CN=TWCA Root Certification Authority, OU=Root CA, O=TAIWAN-CA, C=TW
  Algorithm: RSA; Serial number: 0x1
  Valid from Thu Aug 28 09:24:33 CEST 2008 until Tue Dec 31 16:59:59 CET 2030

adding as trusted cert:
  Subject: CN=OISTE WISeKey Global Root GA CA, OU=OISTE Foundation Endorsed, OU=Copyright (c) 2005, O=WISeKey, C=CH
  Issuer:  CN=OISTE WISeKey Global Root GA CA, OU=OISTE Foundation Endorsed, OU=Copyright (c) 2005, O=WISeKey, C=CH
  Algorithm: RSA; Serial number: 0x413d72c7f46b1f81437df1d22854df9a
  Valid from Sun Dec 11 17:03:44 CET 2005 until Fri Dec 11 17:09:51 CET 2037

adding as trusted cert:
  Subject: CN=Go Daddy Root Certificate Authority - G2, O="GoDaddy.com, Inc.", L=Scottsdale, ST=Arizona, C=US
  Issuer:  CN=Go Daddy Root Certificate Authority - G2, O="GoDaddy.com, Inc.", L=Scottsdale, ST=Arizona, C=US
  Algorithm: RSA; Serial number: 0x0
  Valid from Tue Sep 01 02:00:00 CEST 2009 until Fri Jan 01 00:59:59 CET 2038

adding as trusted cert:
  Subject: CN=Autoridad de Certificacion Firmaprofesional CIF A62634068, C=ES
  Issuer:  CN=Autoridad de Certificacion Firmaprofesional CIF A62634068, C=ES
  Algorithm: RSA; Serial number: 0x53ec3beefbb2485f
  Valid from Wed May 20 10:38:15 CEST 2009 until Tue Dec 31 09:38:15 CET 2030

adding as trusted cert:
  Subject: C=ES, O=EDICOM, OU=PKI, CN=ACEDICOM Root
  Issuer:  C=ES, O=EDICOM, OU=PKI, CN=ACEDICOM Root
  Algorithm: RSA; Serial number: 0x618dc7863b018205
  Valid from Fri Apr 18 18:24:22 CEST 2008 until Thu Apr 13 18:24:22 CEST 2028

adding as trusted cert:
  Subject: CN=VeriSign Universal Root Certification Authority, OU="(c) 2008 VeriSign, Inc. - For authorized use only", OU=VeriSign Trust Network, O="VeriSign, Inc.", C=US
  Issuer:  CN=VeriSign Universal Root Certification Authority, OU="(c) 2008 VeriSign, Inc. - For authorized use only", OU=VeriSign Trust Network, O="VeriSign, Inc.", C=US
  Algorithm: RSA; Serial number: 0x401ac46421b31321030ebbe4121ac51d
  Valid from Wed Apr 02 02:00:00 CEST 2008 until Wed Dec 02 00:59:59 CET 2037

adding as trusted cert:
  Subject: CN=Certum Trusted Network CA, OU=Certum Certification Authority, O=Unizeto Technologies S.A., C=PL
  Issuer:  CN=Certum Trusted Network CA, OU=Certum Certification Authority, O=Unizeto Technologies S.A., C=PL
  Algorithm: RSA; Serial number: 0x444c0
  Valid from Wed Oct 22 14:07:37 CEST 2008 until Mon Dec 31 13:07:37 CET 2029

adding as trusted cert:
  Subject: CN=OpenTrust Root CA G3, O=OpenTrust, C=FR
  Issuer:  CN=OpenTrust Root CA G3, O=OpenTrust, C=FR
  Algorithm: EC; Serial number: 0x1120e6f84cfc24b0be0540acda831b34603f
  Valid from Mon May 26 02:00:00 CEST 2014 until Fri Jan 15 01:00:00 CET 2038

adding as trusted cert:
  Subject: CN=AffirmTrust Premium, O=AffirmTrust, C=US
  Issuer:  CN=AffirmTrust Premium, O=AffirmTrust, C=US
  Algorithm: RSA; Serial number: 0x6d8c1446b1a60aee
  Valid from Fri Jan 29 15:10:36 CET 2010 until Mon Dec 31 15:10:36 CET 2040

adding as trusted cert:
  Subject: OU=Security Communication RootCA1, O=SECOM Trust.net, C=JP
  Issuer:  OU=Security Communication RootCA1, O=SECOM Trust.net, C=JP
  Algorithm: RSA; Serial number: 0x0
  Valid from Tue Sep 30 06:20:49 CEST 2003 until Sat Sep 30 06:20:49 CEST 2023

adding as trusted cert:
  Subject: C=TR, O=EBG Bilişim Teknolojileri ve Hizmetleri A.Ş., CN=EBG Elektronik Sertifika Hizmet Sağlayıcısı
  Issuer:  C=TR, O=EBG Bilişim Teknolojileri ve Hizmetleri A.Ş., CN=EBG Elektronik Sertifika Hizmet Sağlayıcısı
  Algorithm: RSA; Serial number: 0x4caf73421c8e7402
  Valid from Thu Aug 17 02:21:09 CEST 2006 until Sun Aug 14 02:31:09 CEST 2016

adding as trusted cert:
  Subject: CN=GlobalSign, O=GlobalSign, OU=GlobalSign Root CA - R3
  Issuer:  CN=GlobalSign, O=GlobalSign, OU=GlobalSign Root CA - R3
  Algorithm: RSA; Serial number: 0x4000000000121585308a2
  Valid from Wed Mar 18 11:00:00 CET 2009 until Sun Mar 18 11:00:00 CET 2029

adding as trusted cert:
  Subject: CN=Buypass Class 3 Root CA, O=Buypass AS-983163327, C=NO
  Issuer:  CN=Buypass Class 3 Root CA, O=Buypass AS-983163327, C=NO
  Algorithm: RSA; Serial number: 0x2
  Valid from Tue Oct 26 10:28:58 CEST 2010 until Fri Oct 26 10:28:58 CEST 2040

adding as trusted cert:
  Subject: CN=AffirmTrust Networking, O=AffirmTrust, C=US
  Issuer:  CN=AffirmTrust Networking, O=AffirmTrust, C=US
  Algorithm: RSA; Serial number: 0x7c4f04391cd4992d
  Valid from Fri Jan 29 15:08:24 CET 2010 until Tue Dec 31 15:08:24 CET 2030

adding as trusted cert:
  Subject: EMAILADDRESS=hostmaster@spi-inc.org, CN=Certificate Authority, OU=hostmaster, O=Software in the Public Interest, L=Indianapolis, ST=Indiana, C=US
  Issuer:  EMAILADDRESS=hostmaster@spi-inc.org, CN=Certificate Authority, OU=hostmaster, O=Software in the Public Interest, L=Indianapolis, ST=Indiana, C=US
  Algorithm: RSA; Serial number: 0xe88eb6c9f82a1428
  Valid from Tue May 13 10:07:56 CEST 2008 until Fri May 11 10:07:56 CEST 2018

adding as trusted cert:
  Subject: CN=VeriSign Class 1 Public Primary Certification Authority - G3, OU="(c) 1999 VeriSign, Inc. - For authorized use only", OU=VeriSign Trust Network, O="VeriSign, Inc.", C=US
  Issuer:  CN=VeriSign Class 1 Public Primary Certification Authority - G3, OU="(c) 1999 VeriSign, Inc. - For authorized use only", OU=VeriSign Trust Network, O="VeriSign, Inc.", C=US
  Algorithm: RSA; Serial number: 0x8b5b75568454850b00cfaf3848ceb1a4
  Valid from Fri Oct 01 02:00:00 CEST 1999 until Thu Jul 17 01:59:59 CEST 2036

adding as trusted cert:
  Subject: O=Government Root Certification Authority, C=TW
  Issuer:  O=Government Root Certification Authority, C=TW
  Algorithm: RSA; Serial number: 0x1f9d595ad72fc20644a5800869e35ef6
  Valid from Thu Dec 05 14:23:33 CET 2002 until Sun Dec 05 14:23:33 CET 2032

adding as trusted cert:
  Subject: CN=GeoTrust Primary Certification Authority - G3, OU=(c) 2008 GeoTrust Inc. - For authorized use only, O=GeoTrust Inc., C=US
  Issuer:  CN=GeoTrust Primary Certification Authority - G3, OU=(c) 2008 GeoTrust Inc. - For authorized use only, O=GeoTrust Inc., C=US
  Algorithm: RSA; Serial number: 0x15ac6e9419b2794b41f627a9c3180f1f
  Valid from Wed Apr 02 02:00:00 CEST 2008 until Wed Dec 02 00:59:59 CET 2037

adding as trusted cert:
  Subject: CN=AC Raíz Certicámara S.A., O=Sociedad Cameral de Certificación Digital - Certicámara S.A., C=CO
  Issuer:  CN=AC Raíz Certicámara S.A., O=Sociedad Cameral de Certificación Digital - Certicámara S.A., C=CO
  Algorithm: RSA; Serial number: 0x77e52937be015e357f0698ccbec0c
  Valid from Mon Nov 27 21:46:29 CET 2006 until Tue Apr 02 23:42:02 CEST 2030

adding as trusted cert:
  Subject: CN=GlobalSign, O=GlobalSign, OU=GlobalSign ECC Root CA - R5
  Issuer:  CN=GlobalSign, O=GlobalSign, OU=GlobalSign ECC Root CA - R5
  Algorithm: EC; Serial number: 0x605949e0262ebb55f90a778a71f94ad86c
  Valid from Tue Nov 13 01:00:00 CET 2012 until Tue Jan 19 04:14:07 CET 2038

adding as trusted cert:
  Subject: CN=Starfield Root Certificate Authority - G2, O="Starfield Technologies, Inc.", L=Scottsdale, ST=Arizona, C=US
  Issuer:  CN=Starfield Root Certificate Authority - G2, O="Starfield Technologies, Inc.", L=Scottsdale, ST=Arizona, C=US
  Algorithm: RSA; Serial number: 0x0
  Valid from Tue Sep 01 02:00:00 CEST 2009 until Fri Jan 01 00:59:59 CET 2038

adding as trusted cert:
  Subject: CN=VeriSign Class 3 Public Primary Certification Authority - G4, OU="(c) 2007 VeriSign, Inc. - For authorized use only", OU=VeriSign Trust Network, O="VeriSign, Inc.", C=US
  Issuer:  CN=VeriSign Class 3 Public Primary Certification Authority - G4, OU="(c) 2007 VeriSign, Inc. - For authorized use only", OU=VeriSign Trust Network, O="VeriSign, Inc.", C=US
  Algorithm: EC; Serial number: 0x2f80fe238c0e220f486712289187acb3
  Valid from Mon Nov 05 01:00:00 CET 2007 until Tue Jan 19 00:59:59 CET 2038

adding as trusted cert:
  Subject: C=ES, O=ACCV, OU=PKIACCV, CN=ACCVRAIZ1
  Issuer:  C=ES, O=ACCV, OU=PKIACCV, CN=ACCVRAIZ1
  Algorithm: RSA; Serial number: 0x5ec3b7a6437fa4e0
  Valid from Thu May 05 11:37:37 CEST 2011 until Tue Dec 31 10:37:37 CET 2030

adding as trusted cert:
  Subject: CN=Certplus Root CA G1, O=Certplus, C=FR
  Issuer:  CN=Certplus Root CA G1, O=Certplus, C=FR
  Algorithm: RSA; Serial number: 0x11205583e42d3e5456852d8337b72cdc4611
  Valid from Mon May 26 02:00:00 CEST 2014 until Fri Jan 15 01:00:00 CET 2038

adding as trusted cert:
  Subject: CN=USERTrust ECC Certification Authority, O=The USERTRUST Network, L=Jersey City, ST=New Jersey, C=US
  Issuer:  CN=USERTrust ECC Certification Authority, O=The USERTRUST Network, L=Jersey City, ST=New Jersey, C=US
  Algorithm: EC; Serial number: 0x5c8b99c55a94c5d27156decd8980cc26
  Valid from Mon Feb 01 01:00:00 CET 2010 until Tue Jan 19 00:59:59 CET 2038

adding as trusted cert:
  Subject: CN=Sonera Class2 CA, O=Sonera, C=FI
  Issuer:  CN=Sonera Class2 CA, O=Sonera, C=FI
  Algorithm: RSA; Serial number: 0x1d
  Valid from Fri Apr 06 09:29:40 CEST 2001 until Tue Apr 06 09:29:40 CEST 2021

adding as trusted cert:
  Subject: CN=S-TRUST Authentication and Encryption Root CA 2005:PN, O=Deutscher Sparkassen Verlag GmbH, L=Stuttgart, ST=Baden-Wuerttemberg (BW), C=DE
  Issuer:  CN=S-TRUST Authentication and Encryption Root CA 2005:PN, O=Deutscher Sparkassen Verlag GmbH, L=Stuttgart, ST=Baden-Wuerttemberg (BW), C=DE
  Algorithm: RSA; Serial number: 0x371918e653547c1ab5b8cb595adb35b7
  Valid from Wed Jun 22 02:00:00 CEST 2005 until Sat Jun 22 01:59:59 CEST 2030

adding as trusted cert:
  Subject: CN=COMODO ECC Certification Authority, O=COMODO CA Limited, L=Salford, ST=Greater Manchester, C=GB
  Issuer:  CN=COMODO ECC Certification Authority, O=COMODO CA Limited, L=Salford, ST=Greater Manchester, C=GB
  Algorithm: EC; Serial number: 0x1f47afaa62007050544c019e9b63992a
  Valid from Thu Mar 06 01:00:00 CET 2008 until Tue Jan 19 00:59:59 CET 2038

adding as trusted cert:
  Subject: C=IL, O=ComSign, CN=ComSign CA
  Issuer:  C=IL, O=ComSign, CN=ComSign CA
  Algorithm: RSA; Serial number: 0x1413968314558cea7b63e5fc34877744
  Valid from Wed Mar 24 12:32:18 CET 2004 until Mon Mar 19 16:02:18 CET 2029

trigger seeding of SecureRandom
done seeding SecureRandom
Ignoring unsupported cipher suite: TLS_DHE_DSS_WITH_AES_128_CBC_SHA256
Ignoring unsupported cipher suite: TLS_DHE_DSS_WITH_AES_256_CBC_SHA256
Ignoring unsupported cipher suite: TLS_DHE_RSA_WITH_AES_128_CBC_SHA256
Ignoring unsupported cipher suite: TLS_ECDH_RSA_WITH_AES_128_CBC_SHA256
Ignoring unsupported cipher suite: TLS_DHE_RSA_WITH_AES_256_CBC_SHA256
Ignoring unsupported cipher suite: TLS_ECDHE_RSA_WITH_AES_256_CBC_SHA384
Ignoring unsupported cipher suite: TLS_ECDH_ECDSA_WITH_AES_256_CBC_SHA384
Ignoring unsupported cipher suite: TLS_RSA_WITH_AES_256_CBC_SHA256
Ignoring unsupported cipher suite: TLS_ECDHE_RSA_WITH_AES_128_CBC_SHA256
Ignoring unsupported cipher suite: TLS_ECDHE_ECDSA_WITH_AES_256_CBC_SHA384
Ignoring unsupported cipher suite: TLS_ECDH_RSA_WITH_AES_256_CBC_SHA384
Ignoring unsupported cipher suite: TLS_ECDHE_ECDSA_WITH_AES_128_CBC_SHA256
Ignoring unsupported cipher suite: TLS_ECDH_ECDSA_WITH_AES_128_CBC_SHA256
Ignoring unsupported cipher suite: TLS_RSA_WITH_AES_128_CBC_SHA256
Allow unsafe renegotiation: false
Allow legacy hello messages: true
Is initial handshake: true
Is secure renegotiation: false
tilesReader0, setSoTimeout(30000) called
tilesReader0, setSoTimeout(30000) called
%% No cached client session
*** ClientHello, TLSv1
RandomCookie:  GMT: 1494244517 bytes = { 205, 250, 47, 30, 112, 158, 170, 83, 63, 84, 11, 164, 179, 198, 193, 237, 36, 116, 64, 245, 54, 63, 134, 101, 203, 231, 130, 120 }
Session ID:  {}
Cipher Suites: [TLS_ECDHE_ECDSA_WITH_AES_256_CBC_SHA, TLS_ECDHE_RSA_WITH_AES_256_CBC_SHA, TLS_RSA_WITH_AES_256_CBC_SHA, TLS_ECDH_ECDSA_WITH_AES_256_CBC_SHA, TLS_ECDH_RSA_WITH_AES_256_CBC_SHA, TLS_DHE_RSA_WITH_AES_256_CBC_SHA, TLS_DHE_DSS_WITH_AES_256_CBC_SHA, TLS_ECDHE_ECDSA_WITH_AES_128_CBC_SHA, TLS_ECDHE_RSA_WITH_AES_128_CBC_SHA, TLS_RSA_WITH_AES_128_CBC_SHA, TLS_ECDH_ECDSA_WITH_AES_128_CBC_SHA, TLS_ECDH_RSA_WITH_AES_128_CBC_SHA, TLS_DHE_RSA_WITH_AES_128_CBC_SHA, TLS_DHE_DSS_WITH_AES_128_CBC_SHA, TLS_ECDHE_ECDSA_WITH_3DES_EDE_CBC_SHA, TLS_ECDHE_RSA_WITH_3DES_EDE_CBC_SHA, SSL_RSA_WITH_3DES_EDE_CBC_SHA, TLS_ECDH_ECDSA_WITH_3DES_EDE_CBC_SHA, TLS_ECDH_RSA_WITH_3DES_EDE_CBC_SHA, SSL_DHE_RSA_WITH_3DES_EDE_CBC_SHA, SSL_DHE_DSS_WITH_3DES_EDE_CBC_SHA, TLS_EMPTY_RENEGOTIATION_INFO_SCSV]
Compression Methods:  { 0 }
Extension elliptic_curves, curve names: {secp256r1, secp384r1, secp521r1}
Extension ec_point_formats, formats: [uncompressed]
***
tilesReader0, WRITE: TLSv1 Handshake, length = 107
tilesReader0, READ: TLSv1 Handshake, length = 57
*** ServerHello, TLSv1
RandomCookie:  GMT: -1251868204 bytes = { 247, 9, 135, 185, 161, 134, 138, 252, 254, 239, 48, 119, 38, 238, 49, 207, 105, 136, 199, 207, 88, 11, 222, 51, 25, 80, 123, 73 }
Session ID:  {}
Cipher Suite: TLS_ECDHE_RSA_WITH_AES_128_CBC_SHA
Compression Method: 0
Extension renegotiation_info, renegotiated_connection: <empty>
Extension ec_point_formats, formats: [uncompressed, ansiX962_compressed_prime, ansiX962_compressed_char2]
***
%% Initialized:  [Session-1, TLS_ECDHE_RSA_WITH_AES_128_CBC_SHA]
** TLS_ECDHE_RSA_WITH_AES_128_CBC_SHA
tilesReader0, READ: TLSv1 Handshake, length = 2879
*** Certificate chain
chain [0] = [
[
  Version: V3
  Subject: CN=*.cloudfront.net, O="Amazon.com, Inc.", L=Seattle, ST=Washington, C=US
  Signature Algorithm: SHA256withRSA, OID = 1.2.840.113549.1.1.11

  Key:  Sun RSA public key, 2048 bits
  modulus: 20405723872688193654368765729321512773586051887036406655882410088519999533057902575952062388996556408274839659887430262447724897143825182433951272580718812815813619338393677358701876089200333521959747919768015244016389216612041692404011997778246953079080068869577917084531697930291244925111973583137814910588721947225812453616703923620348327733440836995019212218139969169184433025637215979048634468037183346939657871645305975872165481500675202819194702507716417722389775962049417186199991689072931509461650777859709680325982699377639100234968080909834003954658983353163035116182524484012581181433064590992530638054819
  public exponent: 65537
  Validity: [From: Wed Oct 26 02:00:00 CEST 2016,
               To: Mon Dec 18 00:59:59 CET 2017]
  Issuer: CN=Symantec Class 3 Secure Server CA - G4, OU=Symantec Trust Network, O=Symantec Corporation, C=US
  SerialNumber: [    369ac73d 67063aa2 75830dfc 66841c1e]

Certificate Extensions: 9
[1]: ObjectId: 1.3.6.1.4.1.11129.2.4.2 Criticality=false
Extension unknown: DER encoded OCTET string =
0000: 04 81 F6 04 81 F3 00 F1   00 76 00 DD EB 1D 2B 7A  .........v....+z
0010: 0D 4F A6 20 8B 81 AD 81   68 70 7E 2E 8E 9D 01 D5  .O. ....hp......
0020: 5C 88 8D 3D 11 C4 CD B6   EC BE CC 00 00 01 58 02  \..=..........X.
0030: D1 40 2D 00 00 04 03 00   47 30 45 02 20 78 25 64  .@-.....G0E. x%d
0040: BC A9 7F 37 58 2C 7D 4C   F5 19 F8 36 08 53 67 FA  ...7X,.L...6.Sg.
0050: 1A C2 7C 0E 4A B2 66 2E   3D F4 83 2C 18 02 21 00  ....J.f.=..,..!.
0060: 86 36 E7 29 C4 65 96 84   54 93 C9 EC C0 CE 42 7D  .6.).e..T.....B.
0070: D1 E8 E2 34 B0 F5 E0 5E   07 AB F8 B6 36 E4 05 B9  ...4...^....6...
0080: 00 77 00 68 F6 98 F8 1F   64 82 BE 3A 8C EE B9 28  .w.h....d..:...(
0090: 1D 4C FC 71 51 5D 67 93   D4 44 D1 0A 67 AC BB 4F  .L.qQ]g..D..g..O
00A0: 4F FB C4 00 00 01 58 02   D1 40 53 00 00 04 03 00  O.....X..@S.....
00B0: 48 30 46 02 21 00 A5 EB   01 3A 3F 64 34 E2 20 C0  H0F.!....:?d4. .
00C0: F1 CE 0B 6D 5D D5 2D 07   DD DB BE A0 54 C8 FE E1  ...m].-.....T...
00D0: FF 58 C4 AE F5 D9 02 21   00 AC 0F E3 81 F3 7D 47  .X.....!.......G
00E0: B4 93 1B A1 A2 23 CB 5F   36 F0 77 D9 24 C3 8D 99  .....#._6.w.$...
00F0: 35 73 5D 2B 56 7C D4 0E   6A                       5s]+V...j


[2]: ObjectId: 1.3.6.1.5.5.7.1.1 Criticality=false
AuthorityInfoAccess [
  [
   accessMethod: ocsp
   accessLocation: URIName: http://ss.symcd.com
, 
   accessMethod: caIssuers
   accessLocation: URIName: http://ss.symcb.com/ss.crt
]
]

[3]: ObjectId: 2.5.29.35 Criticality=false
AuthorityKeyIdentifier [
KeyIdentifier [
0000: 5F 60 CF 61 90 55 DF 84   43 14 8A 60 2A B2 F5 7A  _`.a.U..C..`*..z
0010: F4 43 18 EF                                        .C..
]
]

[4]: ObjectId: 2.5.29.19 Criticality=false
BasicConstraints:[
  CA:false
  PathLen: undefined
]

[5]: ObjectId: 2.5.29.31 Criticality=false
CRLDistributionPoints [
  [DistributionPoint:
     [URIName: http://ss.symcb.com/ss.crl]
]]

[6]: ObjectId: 2.5.29.32 Criticality=false
CertificatePolicies [
  [CertificatePolicyId: [2.23.140.1.2.2]
[PolicyQualifierInfo: [
  qualifierID: 1.3.6.1.5.5.7.2.1
  qualifier: 0000: 16 17 68 74 74 70 73 3A   2F 2F 64 2E 73 79 6D 63  ..https://d.symc
0010: 62 2E 63 6F 6D 2F 63 70   73                       b.com/cps

], PolicyQualifierInfo: [
  qualifierID: 1.3.6.1.5.5.7.2.2
  qualifier: 0000: 30 19 0C 17 68 74 74 70   73 3A 2F 2F 64 2E 73 79  0...https://d.sy
0010: 6D 63 62 2E 63 6F 6D 2F   72 70 61                 mcb.com/rpa

]]  ]
]

[7]: ObjectId: 2.5.29.37 Criticality=false
ExtendedKeyUsages [
  serverAuth
  clientAuth
]

[8]: ObjectId: 2.5.29.15 Criticality=true
KeyUsage [
  DigitalSignature
  Key_Encipherment
]

[9]: ObjectId: 2.5.29.17 Criticality=false
SubjectAlternativeName [
  DNSName: cloudfront.net
  DNSName: *.cloudfront.net
]

]
  Algorithm: [SHA256withRSA]
  Signature:
0000: 5E 40 19 2C AB 2B 17 66   E1 37 0E CB B9 10 6E 46  ^@.,.+.f.7....nF
0010: 0B 58 5E 50 4A 55 C8 21   94 BC 3F CB C6 41 49 1B  .X^PJU.!..?..AI.
0020: 6B 41 05 AE 4B F8 2C 8B   1D 4C F5 40 1F A4 F3 7F  kA..K.,..L.@....
0030: 42 7D 55 B7 9E 99 A8 61   AC 60 16 61 62 B2 CC DE  B.U....a.`.ab...
0040: C5 9B E2 1E 27 E4 9C 61   A5 2E F7 59 A4 78 EA B3  ....'..a...Y.x..
0050: AB 5C CD FF 65 C9 E3 3D   85 E4 1A D6 E8 F3 54 06  .\..e..=......T.
0060: E8 78 15 24 72 EF 7F 04   AE 33 8A 63 AD 76 9E 83  .x.$r....3.c.v..
0070: 0B 9B 6E 03 51 3B 39 E7   64 DA 4F AE 90 49 9A 03  ..n.Q;9.d.O..I..
0080: 62 24 85 E4 02 F2 3E BB   59 BF 2C B4 49 77 98 C7  b$....>.Y.,.Iw..
0090: 73 D7 6A CD 38 4E 5E A9   A7 59 C5 28 C5 DE E5 56  s.j.8N^..Y.(...V
00A0: 9E 0A A4 F0 AB 23 C6 E7   B6 74 04 49 AA CF 39 08  .....#...t.I..9.
00B0: AB 16 02 1C BB F6 1F 9F   8E 29 03 20 EE 5A CA B6  .........). .Z..
00C0: EF A9 8D 8B B0 9D 55 11   43 F3 D0 C8 52 7D 7E 44  ......U.C...R..D
00D0: 16 AF DE 4A 2A AA F1 74   A7 E4 B3 42 74 20 8E 6C  ...J*..t...Bt .l
00E0: 5E 9B E2 CF 23 32 63 24   B0 B1 0E AD 6F 7C F4 39  ^...#2c$....o..9
00F0: 7F 78 93 43 64 4A D3 86   38 53 32 48 A3 E8 8E 15  .x.CdJ..8S2H....

]
chain [1] = [
[
  Version: V3
  Subject: CN=Symantec Class 3 Secure Server CA - G4, OU=Symantec Trust Network, O=Symantec Corporation, C=US
  Signature Algorithm: SHA256withRSA, OID = 1.2.840.113549.1.1.11

  Key:  Sun RSA public key, 2048 bits
  modulus: 22576943005754844606138354865717752832277301035739668529636283241600205262557801525597360763372170676199662619055064924246684792525041712375949738792825440691457091211025477989846284478291973146477219377580225056515224971395095437013752388917316112625198057910562889754817742294810976281557412550404195122120498430661104725572782697493906653982700701434821717185594331487937077014614112030065781958051040005617436902800070925903256291996854555314994296623633433841628912441974480088215690879074556841204933675612662750435973815846156947918404559422340096976673969923127550380003695879508992347677749864399000139968759
  public exponent: 65537
  Validity: [From: Thu Oct 31 01:00:00 CET 2013,
               To: Tue Oct 31 00:59:59 CET 2023]
  Issuer: CN=VeriSign Class 3 Public Primary Certification Authority - G5, OU="(c) 2006 VeriSign, Inc. - For authorized use only", OU=VeriSign Trust Network, O="VeriSign, Inc.", C=US
  SerialNumber: [    513fb974 3870b734 40418d30 930699ff]

Certificate Extensions: 8
[1]: ObjectId: 1.3.6.1.5.5.7.1.1 Criticality=false
AuthorityInfoAccess [
  [
   accessMethod: ocsp
   accessLocation: URIName: http://s2.symcb.com
]
]

[2]: ObjectId: 2.5.29.35 Criticality=false
AuthorityKeyIdentifier [
KeyIdentifier [
0000: 7F D3 65 A7 C2 DD EC BB   F0 30 09 F3 43 39 FA 02  ..e......0..C9..
0010: AF 33 31 33                                        .313
]
]

[3]: ObjectId: 2.5.29.19 Criticality=true
BasicConstraints:[
  CA:true
  PathLen:0
]

[4]: ObjectId: 2.5.29.31 Criticality=false
CRLDistributionPoints [
  [DistributionPoint:
     [URIName: http://s1.symcb.com/pca3-g5.crl]
]]

[5]: ObjectId: 2.5.29.32 Criticality=false
CertificatePolicies [
  [CertificatePolicyId: [2.16.840.1.113733.1.7.54]
[PolicyQualifierInfo: [
  qualifierID: 1.3.6.1.5.5.7.2.1
  qualifier: 0000: 16 1A 68 74 74 70 3A 2F   2F 77 77 77 2E 73 79 6D  ..http://www.sym
0010: 61 75 74 68 2E 63 6F 6D   2F 63 70 73              auth.com/cps

], PolicyQualifierInfo: [
  qualifierID: 1.3.6.1.5.5.7.2.2
  qualifier: 0000: 30 1C 1A 1A 68 74 74 70   3A 2F 2F 77 77 77 2E 73  0...http://www.s
0010: 79 6D 61 75 74 68 2E 63   6F 6D 2F 72 70 61        ymauth.com/rpa

]]  ]
]

[6]: ObjectId: 2.5.29.15 Criticality=true
KeyUsage [
  Key_CertSign
  Crl_Sign
]

[7]: ObjectId: 2.5.29.17 Criticality=false
SubjectAlternativeName [
  CN=SymantecPKI-1-534
]

[8]: ObjectId: 2.5.29.14 Criticality=false
SubjectKeyIdentifier [
KeyIdentifier [
0000: 5F 60 CF 61 90 55 DF 84   43 14 8A 60 2A B2 F5 7A  _`.a.U..C..`*..z
0010: F4 43 18 EF                                        .C..
]
]

]
  Algorithm: [SHA256withRSA]
  Signature:
0000: 5E 94 56 49 DD 8E 2D 65   F5 C1 36 51 B6 03 E3 DA  ^.VI..-e..6Q....
0010: 9E 73 19 F2 1F 59 AB 58   7E 6C 26 05 2C FA 81 D7  .s...Y.X.l&.,...
0020: 5C 23 17 22 2C 37 93 F7   86 EC 85 E6 B0 A3 FD 1F  \#.",7..........
0030: E2 32 A8 45 6F E1 D9 FB   B9 AF D2 70 A0 32 42 65  .2.Eo......p.2Be
0040: BF 84 FE 16 2A 8F 3F C5   A6 D6 A3 93 7D 43 E9 74  ....*.?......C.t
0050: 21 91 35 28 F4 63 E9 2E   ED F7 F5 5C 7F 4B 9A B5  !.5(.c.....\.K..
0060: 20 E9 0A BD E0 45 10 0C   14 94 9A 5D A5 E3 4B 91   ....E.....]..K.
0070: E8 24 9B 46 40 65 F4 22   72 CD 99 F8 88 11 F5 F3  .$.F@e."r.......
0080: 7F E6 33 82 E6 A8 C5 7E   FE D0 08 E2 25 58 08 71  ..3.........%X.q
0090: 68 E6 CD A2 E6 14 DE 4E   52 24 2D FD E5 79 13 53  h......NR$-..y.S
00A0: E7 5E 2F 2D 4D 1B 6D 40   15 52 2B F7 87 89 78 12  .^/-M.m@.R+...x.
00B0: 81 6E D9 4D AA 2D 78 D4   C2 2C 3D 08 5F 87 91 9E  .n.M.-x..,=._...
00C0: 1F 0E B0 DE 30 52 64 86   89 AA 9D 66 9C 0E 76 0C  ....0Rd....f..v.
00D0: 80 F2 74 D8 2A F8 B8 3A   CE D7 D6 0F 11 BE 6B AB  ..t.*..:......k.
00E0: 14 F5 BD 41 A0 22 63 89   F1 BA 0F 6F 29 63 66 2D  ...A."c....o)cf-
00F0: 3F AC 8C 72 C5 FB C7 E4   D4 0F F2 3B 4F 8C 29 C7  ?..r.......;O.).

]
***
Found trusted certificate:
[
[
  Version: V3
  Subject: CN=VeriSign Class 3 Public Primary Certification Authority - G5, OU="(c) 2006 VeriSign, Inc. - For authorized use only", OU=VeriSign Trust Network, O="VeriSign, Inc.", C=US
  Signature Algorithm: SHA1withRSA, OID = 1.2.840.113549.1.1.5

  Key:  Sun RSA public key, 2048 bits
  modulus: 22109471102059671383796642714942393631149792360856487955190294587841800871022486252652612163196360832938367608763978013876844944237576704237206902072810376180366897841695320192789360300658269712766474225042097261456189264772686300705672328691871464945536513831768596383894122798581104077921511815271705394605095257256954381366139644740877956016759414080557948459417160074173313082409422023967584984099389949088073277478112907997447136173994433125025479812790590943737038696590266840534396683337181295383175344548120097700121250428676269067140626584500149856482388498317203907790209503513966223821253856296202557465877
  public exponent: 65537
  Validity: [From: Wed Nov 08 01:00:00 CET 2006,
               To: Thu Jul 17 01:59:59 CEST 2036]
  Issuer: CN=VeriSign Class 3 Public Primary Certification Authority - G5, OU="(c) 2006 VeriSign, Inc. - For authorized use only", OU=VeriSign Trust Network, O="VeriSign, Inc.", C=US
  SerialNumber: [    18dad19e 267de8bb 4a2158cd cc6b3b4a]

Certificate Extensions: 4
[1]: ObjectId: 1.3.6.1.5.5.7.1.12 Criticality=false
Extension unknown: DER encoded OCTET string =
0000: 04 61 30 5F A1 5D A0 5B   30 59 30 57 30 55 16 09  .a0_.].[0Y0W0U..
0010: 69 6D 61 67 65 2F 67 69   66 30 21 30 1F 30 07 06  image/gif0!0.0..
0020: 05 2B 0E 03 02 1A 04 14   8F E5 D3 1A 86 AC 8D 8E  .+..............
0030: 6B C3 CF 80 6A D4 48 18   2C 7B 19 2E 30 25 16 23  k...j.H.,...0%.#
0040: 68 74 74 70 3A 2F 2F 6C   6F 67 6F 2E 76 65 72 69  http://logo.veri
0050: 73 69 67 6E 2E 63 6F 6D   2F 76 73 6C 6F 67 6F 2E  sign.com/vslogo.
0060: 67 69 66                                           gif


[2]: ObjectId: 2.5.29.19 Criticality=true
BasicConstraints:[
  CA:true
  PathLen:2147483647
]

[3]: ObjectId: 2.5.29.15 Criticality=true
KeyUsage [
  Key_CertSign
  Crl_Sign
]

[4]: ObjectId: 2.5.29.14 Criticality=false
SubjectKeyIdentifier [
KeyIdentifier [
0000: 7F D3 65 A7 C2 DD EC BB   F0 30 09 F3 43 39 FA 02  ..e......0..C9..
0010: AF 33 31 33                                        .313
]
]

]
  Algorithm: [SHA1withRSA]
  Signature:
0000: 93 24 4A 30 5F 62 CF D8   1A 98 2F 3D EA DC 99 2D  .$J0_b..../=...-
0010: BD 77 F6 A5 79 22 38 EC   C4 A7 A0 78 12 AD 62 0E  .w..y"8....x..b.
0020: 45 70 64 C5 E7 97 66 2D   98 09 7E 5F AF D6 CC 28  Epd...f-..._...(
0030: 65 F2 01 AA 08 1A 47 DE   F9 F9 7C 92 5A 08 69 20  e.....G.....Z.i 
0040: 0D D9 3E 6D 6E 3C 0D 6E   D8 E6 06 91 40 18 B9 F8  ..>mn<.n....@...
0050: C1 ED DF DB 41 AA E0 96   20 C9 CD 64 15 38 81 C9  ....A... ..d.8..
0060: 94 EE A2 84 29 0B 13 6F   8E DB 0C DD 25 02 DB A4  ....)..o....%...
0070: 8B 19 44 D2 41 7A 05 69   4A 58 4F 60 CA 7E 82 6A  ..D.Az.iJXO`...j
0080: 0B 02 AA 25 17 39 B5 DB   7F E7 84 65 2A 95 8A BD  ...%.9.....e*...
0090: 86 DE 5E 81 16 83 2D 10   CC DE FD A8 82 2A 6D 28  ..^...-......*m(
00A0: 1F 0D 0B C4 E5 E7 1A 26   19 E1 F4 11 6F 10 B5 95  .......&....o...
00B0: FC E7 42 05 32 DB CE 9D   51 5E 28 B6 9E 85 D3 5B  ..B.2...Q^(....[
00C0: EF A5 7D 45 40 72 8E B7   0E 6B 0E 06 FB 33 35 48  ...E@r...k...35H
00D0: 71 B8 9D 27 8B C4 65 5F   0D 86 76 9C 44 7A F6 95  q..'..e_..v.Dz..
00E0: 5C F6 5D 32 08 33 A4 54   B6 18 3F 68 5C F2 42 4A  \.]2.3.T..?h\.BJ
00F0: 85 38 54 83 5F D1 E8 2C   F2 AC 11 D6 A8 ED 63 6A  .8T._..,......cj

]
tilesReader0, READ: TLSv1 Handshake, length = 331
*** ECDH ServerKeyExchange
Server key: SunPKCS11-NSS EC public key, 256 bits (id 16, session object)
  public x coord: 60460861582218828003614092322187589249328835870533930401018330225091820449354
  public y coord: 39245964501868540365928556905329048049848430004834906519695286726559324188005
  parameters: secp256r1 [NIST P-256, X9.62 prime256v1] (1.2.840.10045.3.1.7)
tilesReader0, READ: TLSv1 Handshake, length = 4
*** ServerHelloDone
*** ECDHClientKeyExchange
ECDH Public value:  { 4, 203, 177, 170, 245, 231, 3, 91, 16, 180, 20, 170, 117, 18, 20, 244, 224, 97, 178, 99, 79, 91, 221, 45, 147, 29, 114, 253, 67, 3, 207, 178, 212, 193, 29, 104, 13, 199, 117, 170, 79, 139, 215, 28, 136, 140, 74, 21, 61, 160, 133, 217, 155, 49, 166, 205, 105, 164, 245, 227, 59, 173, 15, 0, 214 }
tilesReader0, WRITE: TLSv1 Handshake, length = 70
SESSION KEYGEN:
PreMaster Secret:
0000: B1 BF 71 48 C1 26 7B 7B   42 82 2C CB FA 20 08 91  ..qH.&..B.,.. ..
0010: DB 20 37 E1 63 14 FF F9   22 42 90 78 99 B4 A4 91  . 7.c..."B.x....
CONNECTION KEYGEN:
Client Nonce:
0000: 59 10 5D A5 CD FA 2F 1E   70 9E AA 53 3F 54 0B A4  Y.].../.p..S?T..
0010: B3 C6 C1 ED 24 74 40 F5   36 3F 86 65 CB E7 82 78  ....$t@.6?.e...x
Server Nonce:
0000: B5 62 02 D4 F7 09 87 B9   A1 86 8A FC FE EF 30 77  .b............0w
0010: 26 EE 31 CF 69 88 C7 CF   58 0B DE 33 19 50 7B 49  &.1.i...X..3.P.I
Master Secret:
0000: 8E 22 09 35 66 F4 8D 82   70 D2 07 CC 99 02 EB DB  .".5f...p.......
0010: B2 2F 88 CD 01 C1 B6 3C   9B 34 AE 36 78 15 1B BF  ./.....<.4.6x...
0020: F6 46 E7 87 EA 10 0C 5F   E1 B4 2C 53 85 17 5E 3C  .F....._..,S..^<
Client MAC write Secret:
0000: 48 56 9B AD 25 57 6F 19   D7 04 FC CA 57 BA D5 7B  HV..%Wo.....W...
0010: 0B F8 D7 12                                        ....
Server MAC write Secret:
0000: 4E BD 40 2E 4F AD 1B 94   7A 4B 17 55 50 EC 70 59  N.@.O...zK.UP.pY
0010: 1F 46 A7 2C                                        .F.,
Client write key:
0000: 99 69 6A 58 97 4E A0 31   D0 4A A0 46 75 9C 63 63  .ijX.N.1.J.Fu.cc
Server write key:
0000: 91 82 17 32 54 DC 50 61   0C 87 55 14 35 73 FC 69  ...2T.Pa..U.5s.i
Client write IV:
0000: DD 95 EE E2 19 B0 70 DD   19 F4 F9 4E D3 69 55 81  ......p....N.iU.
Server write IV:
0000: CC 35 76 FA 33 30 C6 EE   E3 2B 8C 8A 66 FC E6 13  .5v.30...+..f...
tilesReader0, WRITE: TLSv1 Change Cipher Spec, length = 1
*** Finished
verify_data:  { 211, 129, 153, 53, 28, 109, 237, 27, 235, 34, 99, 176 }
***
tilesReader0, WRITE: TLSv1 Handshake, length = 48
tilesReader0, READ: TLSv1 Change Cipher Spec, length = 1
tilesReader0, READ: TLSv1 Handshake, length = 48
*** Finished
verify_data:  { 185, 152, 76, 125, 224, 138, 228, 102, 61, 205, 240, 103 }
***
%% Didn't cache non-resumable client session: [Session-1, TLS_ECDHE_RSA_WITH_AES_128_CBC_SHA]
tilesReader0, WRITE: TLSv1 Application Data, length = 208
tilesReader0, READ: TLSv1 Application Data, length = 1312
2017-05-08 13:59:33,878 [tilesReader0] INFO      org.mapfish.print.PDFUtils - ----->Closing connection
2017-05-08 13:59:34,042 [main] INFO      org.mapfish.print.PDFUtils - -->Alternative: https://api3.geo.admin.ch/qrcodegenerator?url=https%3A%2F%2Fmap.geo.admin.ch%2F%3Flang%3Dfr%26topic%3Dech%26bgLayer%3Dch.swisstopo.pixelkarte-farbe%26layers_opacity%3D0.75%26X%3D127456.30%26Y%3D501379.81%26zoom%3D6
2017-05-08 13:59:34,043 [main] INFO      org.mapfish.print.PDFUtils - -->http_api3.geo.admin.ch
Ignoring unsupported cipher suite: TLS_DHE_DSS_WITH_AES_128_CBC_SHA256
Ignoring unsupported cipher suite: TLS_DHE_DSS_WITH_AES_256_CBC_SHA256
Ignoring unsupported cipher suite: TLS_DHE_RSA_WITH_AES_128_CBC_SHA256
Ignoring unsupported cipher suite: TLS_ECDH_RSA_WITH_AES_128_CBC_SHA256
Ignoring unsupported cipher suite: TLS_DHE_RSA_WITH_AES_256_CBC_SHA256
Ignoring unsupported cipher suite: TLS_ECDHE_RSA_WITH_AES_256_CBC_SHA384
Ignoring unsupported cipher suite: TLS_ECDH_ECDSA_WITH_AES_256_CBC_SHA384
Ignoring unsupported cipher suite: TLS_RSA_WITH_AES_256_CBC_SHA256
Ignoring unsupported cipher suite: TLS_ECDHE_RSA_WITH_AES_128_CBC_SHA256
Ignoring unsupported cipher suite: TLS_ECDHE_ECDSA_WITH_AES_256_CBC_SHA384
Ignoring unsupported cipher suite: TLS_ECDH_RSA_WITH_AES_256_CBC_SHA384
Ignoring unsupported cipher suite: TLS_ECDHE_ECDSA_WITH_AES_128_CBC_SHA256
Ignoring unsupported cipher suite: TLS_ECDH_ECDSA_WITH_AES_128_CBC_SHA256
Ignoring unsupported cipher suite: TLS_RSA_WITH_AES_128_CBC_SHA256
Allow unsafe renegotiation: false
Allow legacy hello messages: true
Is initial handshake: true
Is secure renegotiation: false
main, setSoTimeout(30000) called
main, setSoTimeout(30000) called
%% No cached client session
*** ClientHello, TLSv1
RandomCookie:  GMT: 1494244518 bytes = { 147, 228, 38, 250, 141, 15, 196, 139, 84, 115, 50, 220, 10, 221, 117, 220, 93, 158, 87, 1, 14, 189, 22, 24, 222, 100, 156, 22 }
Session ID:  {}
Cipher Suites: [TLS_ECDHE_ECDSA_WITH_AES_256_CBC_SHA, TLS_ECDHE_RSA_WITH_AES_256_CBC_SHA, TLS_RSA_WITH_AES_256_CBC_SHA, TLS_ECDH_ECDSA_WITH_AES_256_CBC_SHA, TLS_ECDH_RSA_WITH_AES_256_CBC_SHA, TLS_DHE_RSA_WITH_AES_256_CBC_SHA, TLS_DHE_DSS_WITH_AES_256_CBC_SHA, TLS_ECDHE_ECDSA_WITH_AES_128_CBC_SHA, TLS_ECDHE_RSA_WITH_AES_128_CBC_SHA, TLS_RSA_WITH_AES_128_CBC_SHA, TLS_ECDH_ECDSA_WITH_AES_128_CBC_SHA, TLS_ECDH_RSA_WITH_AES_128_CBC_SHA, TLS_DHE_RSA_WITH_AES_128_CBC_SHA, TLS_DHE_DSS_WITH_AES_128_CBC_SHA, TLS_ECDHE_ECDSA_WITH_3DES_EDE_CBC_SHA, TLS_ECDHE_RSA_WITH_3DES_EDE_CBC_SHA, SSL_RSA_WITH_3DES_EDE_CBC_SHA, TLS_ECDH_ECDSA_WITH_3DES_EDE_CBC_SHA, TLS_ECDH_RSA_WITH_3DES_EDE_CBC_SHA, SSL_DHE_RSA_WITH_3DES_EDE_CBC_SHA, SSL_DHE_DSS_WITH_3DES_EDE_CBC_SHA, TLS_EMPTY_RENEGOTIATION_INFO_SCSV]
Compression Methods:  { 0 }
Extension elliptic_curves, curve names: {secp256r1, secp384r1, secp521r1}
Extension ec_point_formats, formats: [uncompressed]
***
main, WRITE: TLSv1 Handshake, length = 107
main, READ: TLSv1 Handshake, length = 89
*** ServerHello, TLSv1
RandomCookie:  GMT: -508864750 bytes = { 170, 171, 218, 184, 242, 176, 107, 4, 242, 140, 20, 234, 189, 105, 93, 102, 178, 92, 132, 32, 216, 171, 204, 210, 190, 127, 141, 81 }
Session ID:  {244, 95, 42, 20, 149, 163, 117, 1, 72, 87, 48, 207, 214, 148, 145, 221, 229, 93, 207, 60, 152, 6, 161, 160, 94, 253, 211, 100, 234, 106, 201, 114}
Cipher Suite: TLS_ECDHE_RSA_WITH_AES_128_CBC_SHA
Compression Method: 0
Extension renegotiation_info, renegotiated_connection: <empty>
Extension ec_point_formats, formats: [uncompressed, ansiX962_compressed_prime, ansiX962_compressed_char2]
***
%% Initialized:  [Session-2, TLS_ECDHE_RSA_WITH_AES_128_CBC_SHA]
** TLS_ECDHE_RSA_WITH_AES_128_CBC_SHA
main, READ: TLSv1 Handshake, length = 6412
*** Certificate chain
chain [0] = [
[
  Version: V3
  Subject: OID.1.3.6.1.4.1.311.60.2.1.3=CH, OID.2.5.4.15=Government Entity, SERIALNUMBER=113474, EMAILADDRESS=webmaster@geo.admin.ch, CN=wmts.geo.admin.ch, O=Federal Office of Topography swisstopo, STREET=Seftigenstrasse 264, OID.2.5.4.17=3084, L=Wabern, ST=Bern, C=CH
  Signature Algorithm: SHA256withRSA, OID = 1.2.840.113549.1.1.11

  Key:  Sun RSA public key, 4096 bits
  modulus: 973767730257649650638435519922224738078164511870626794635616254183225039154118300511289668386776802725220080155472702669659901730215231564420595903407152964373172713903044152699492376007103986960006932241265752375551013030610938374297075988760381252426476851071716535397695807551211738180128269174724755382219070289374437695334329163216308977460987865136814414277877118661636387850179099514425388755753337652592391148438818576385273704815399571431713935108328044648765181117158574105069737617168483143429713989125778524304083529303224482020943809335549528333480642835425997495344134185803528791796274537496744179369087618237650919155845631431899579931784264348558644834065805335969501723835999996574659010607749105690492895854657300421843195387433311109582798680769107545108278427688578814941170405594082432318844572054761714219597930930371762732961387650624668712694185939005346271524719560060485343869619502843792041495553976604215077501748851412256712490835045479906392923418561503932021840328613835666300870641010032883567308250748063101099819267744803422344525062845836892607970617329583062039155707840797499952199601231642183237583452757928985283066066472798971267493246254636982957025082180174227837581232902520878503255864831
  public exponent: 65537
  Validity: [From: Tue Sep 15 11:18:01 CEST 2015,
               To: Fri Sep 15 16:11:23 CEST 2017]
  Issuer: CN=StartCom Extended Validation Server CA, OU=StartCom Certification Authority, O=StartCom Ltd., C=IL
  SerialNumber: [    114ee88e d2213e]

Certificate Extensions: 10
[1]: ObjectId: 1.3.6.1.5.5.7.1.1 Criticality=false
AuthorityInfoAccess [
  [
   accessMethod: ocsp
   accessLocation: URIName: http://ocsp.startssl.com/sub/class4/server/ca
, 
   accessMethod: caIssuers
   accessLocation: URIName: http://aia.startssl.com/certs/sub.class4.server.ca.crt
]
]

[2]: ObjectId: 2.5.29.35 Criticality=false
AuthorityKeyIdentifier [
KeyIdentifier [
0000: A1 E1 9E 45 25 79 4D 06   D9 02 17 92 82 D5 30 89  ...E%yM.......0.
0010: 72 25 14 A0                                        r%..
]
]

[3]: ObjectId: 2.5.29.19 Criticality=false
BasicConstraints:[
  CA:false
  PathLen: undefined
]

[4]: ObjectId: 2.5.29.31 Criticality=false
CRLDistributionPoints [
  [DistributionPoint:
     [URIName: http://crl.startssl.com/crt4-crl.crl]
]]

[5]: ObjectId: 2.5.29.32 Criticality=false
CertificatePolicies [
  [CertificatePolicyId: [1.3.6.1.4.1.23223.2]
[]  ]
  [CertificatePolicyId: [1.3.6.1.4.1.23223.1.1.1]
[]  ]
  [CertificatePolicyId: [1.3.6.1.4.1.23223.1.2.3]
[PolicyQualifierInfo: [
  qualifierID: 1.3.6.1.5.5.7.2.1
  qualifier: 0000: 16 22 68 74 74 70 3A 2F   2F 77 77 77 2E 73 74 61  ."http://www.sta
0010: 72 74 73 73 6C 2E 63 6F   6D 2F 70 6F 6C 69 63 79  rtssl.com/policy
0020: 2E 70 64 66                                        .pdf

], PolicyQualifierInfo: [
  qualifierID: 1.3.6.1.5.5.7.2.1
  qualifier: 0000: 16 24 68 74 74 70 3A 2F   2F 77 77 77 2E 73 74 61  .$http://www.sta
0010: 72 74 73 73 6C 2E 63 6F   6D 2F 65 78 74 65 6E 64  rtssl.com/extend
0020: 65 64 2E 70 64 66                                  ed.pdf

], PolicyQualifierInfo: [
  qualifierID: 1.3.6.1.5.5.7.2.2
  qualifier: 0000: 30 81 EB 30 27 16 20 53   74 61 72 74 43 6F 6D 20  0..0'. StartCom 
0010: 43 65 72 74 69 66 69 63   61 74 69 6F 6E 20 41 75  Certification Au
0020: 74 68 6F 72 69 74 79 30   03 02 01 01 1A 81 BF 54  thority0.......T
0030: 68 69 73 20 63 65 72 74   69 66 69 63 61 74 65 20  his certificate 
0040: 77 61 73 20 69 73 73 75   65 64 20 61 63 63 6F 72  was issued accor
0050: 64 69 6E 67 20 74 6F 20   74 68 65 20 45 78 74 65  ding to the Exte
0060: 6E 64 65 64 20 56 61 6C   69 64 61 74 69 6F 6E 20  nded Validation 
0070: 72 65 71 75 69 72 65 6D   65 6E 74 73 20 6F 66 20  requirements of 
0080: 74 68 65 20 53 74 61 72   74 43 6F 6D 20 43 41 20  the StartCom CA 
0090: 70 6F 6C 69 63 79 2C 20   72 65 6C 69 61 6E 63 65  policy, reliance
00A0: 20 6F 6E 6C 79 20 66 6F   72 20 74 68 65 20 69 6E   only for the in
00B0: 74 65 6E 64 65 64 20 70   75 72 70 6F 73 65 20 69  tended purpose i
00C0: 6E 20 63 6F 6D 70 6C 69   61 6E 63 65 20 6F 66 20  n compliance of 
00D0: 74 68 65 20 72 65 6C 79   69 6E 67 20 70 61 72 74  the relying part
00E0: 79 20 6F 62 6C 69 67 61   74 69 6F 6E 73 2E        y obligations.

]]  ]
]

[6]: ObjectId: 2.5.29.37 Criticality=false
ExtendedKeyUsages [
  clientAuth
  serverAuth
]

[7]: ObjectId: 2.5.29.18 Criticality=false
IssuerAlternativeName [
  URIName: http://www.startssl.com/
]

[8]: ObjectId: 2.5.29.15 Criticality=false
KeyUsage [
  DigitalSignature
  Key_Encipherment
  Key_Agreement
]

[9]: ObjectId: 2.5.29.17 Criticality=false
SubjectAlternativeName [
  DNSName: wmts.geo.admin.ch
  DNSName: geo.admin.ch
  DNSName: aerialimages.geo.admin.ch
  DNSName: aerialimages0.geo.admin.ch
  DNSName: aerialimages1.geo.admin.ch
  DNSName: aerialimages2.geo.admin.ch
  DNSName: aerialimages3.geo.admin.ch
  DNSName: aerialimages4.geo.admin.ch
  DNSName: api.geo.admin.ch
  DNSName: api3.geo.admin.ch
  DNSName: api4.geo.admin.ch
  DNSName: bit.geo.admin.ch
  DNSName: carta.geo.admin.ch
  DNSName: carte.geo.admin.ch
  DNSName: charta.geo.admin.ch
  DNSName: chat.geo.admin.ch
  DNSName: cms.geo.admin.ch
  DNSName: dashboard.geo.admin.ch
  DNSName: data.geo.admin.ch
  DNSName: db.geo.admin.ch
  DNSName: demo.geo.admin.ch
  DNSName: deploy.geo.admin.ch
  DNSName: dynamo.geo.admin.ch
  DNSName: feature.geo.admin.ch
  DNSName: file.geo.admin.ch
  DNSName: files.geo.admin.ch
  DNSName: git.geo.admin.ch
  DNSName: height.geo.admin.ch
  DNSName: help.geo.admin.ch
  DNSName: historicalmaps.geo.admin.ch
  DNSName: historicalmaps0.geo.admin.ch
  DNSName: historicalmaps1.geo.admin.ch
  DNSName: historicalmaps2.geo.admin.ch
  DNSName: historicalmaps3.geo.admin.ch
  DNSName: historicalmaps4.geo.admin.ch
  DNSName: iam.geo.admin.ch
  DNSName: issue.geo.admin.ch
  DNSName: jenkins.geo.admin.ch
  DNSName: karte.geo.admin.ch
  DNSName: login.geo.admin.ch
  DNSName: logs.geo.admin.ch
  DNSName: map.geo.admin.ch
  DNSName: map2.geo.admin.ch
  DNSName: map3.geo.admin.ch
  DNSName: map4.geo.admin.ch
  DNSName: mapproxy.geo.admin.ch
  DNSName: maps.geo.admin.ch
  DNSName: metadata.geo.admin.ch
  DNSName: metrics.geo.admin.ch
  DNSName: m.geo.admin.ch
  DNSName: m.map.geo.admin.ch
  DNSName: mobile.geo.admin.ch
  DNSName: mobile.map.geo.admin.ch
  DNSName: models.geo.admin.ch
  DNSName: my.geo.admin.ch
  DNSName: ows.geo.admin.ch
  DNSName: print.geo.admin.ch
  DNSName: profile.geo.admin.ch
  DNSName: public.geo.admin.ch
  DNSName: query.geo.admin.ch
  DNSName: schemas.geo.admin.ch
  DNSName: search.geo.admin.ch
  DNSName: s.geo.admin.ch
  DNSName: sso.geo.admin.ch
  DNSName: stats.geo.admin.ch
  DNSName: status.geo.admin.ch
  DNSName: storymaps.geo.admin.ch
  DNSName: talk.geo.admin.ch
  DNSName: terrain0.geo.admin.ch
  DNSName: terrain1.geo.admin.ch
  DNSName: terrain2.geo.admin.ch
  DNSName: terrain3.geo.admin.ch
  DNSName: terrain4.geo.admin.ch
  DNSName: test.geo.admin.ch
  DNSName: ticket.geo.admin.ch
  DNSName: wfs.geo.admin.ch
  DNSName: wms-fedro.geo.admin.ch
  DNSName: wms.geo.admin.ch
  DNSName: wms0.geo.admin.ch
  DNSName: wms1.geo.admin.ch
  DNSName: wms2.geo.admin.ch
  DNSName: wms3.geo.admin.ch
  DNSName: wms4.geo.admin.ch
  DNSName: wms10.geo.admin.ch
  DNSName: wms11.geo.admin.ch
  DNSName: wms12.geo.admin.ch
  DNSName: wms13.geo.admin.ch
  DNSName: wms14.geo.admin.ch
  DNSName: wmts0.geo.admin.ch
  DNSName: wmts1.geo.admin.ch
  DNSName: wmts2.geo.admin.ch
  DNSName: wmts3.geo.admin.ch
  DNSName: wmts4.geo.admin.ch
  DNSName: wmts5.geo.admin.ch
  DNSName: wmts6.geo.admin.ch
  DNSName: wmts7.geo.admin.ch
  DNSName: wmts8.geo.admin.ch
  DNSName: wmts9.geo.admin.ch
  DNSName: wmts10.geo.admin.ch
  DNSName: wmts11.geo.admin.ch
  DNSName: wmts12.geo.admin.ch
  DNSName: wmts13.geo.admin.ch
  DNSName: wmts14.geo.admin.ch
  DNSName: wmts15.geo.admin.ch
  DNSName: wmts16.geo.admin.ch
  DNSName: wmts17.geo.admin.ch
  DNSName: wmts18.geo.admin.ch
  DNSName: wmts19.geo.admin.ch
  DNSName: wmts20.geo.admin.ch
  DNSName: wmts21.geo.admin.ch
  DNSName: wmts22.geo.admin.ch
  DNSName: wmts23.geo.admin.ch
  DNSName: wmts24.geo.admin.ch
  DNSName: wmts25.geo.admin.ch
  DNSName: wmts26.geo.admin.ch
  DNSName: wmts27.geo.admin.ch
  DNSName: wmts28.geo.admin.ch
  DNSName: wmts29.geo.admin.ch
  DNSName: wmts-fedro.geo.admin.ch
  DNSName: wmts-foag.geo.admin.ch
  DNSName: wmts-vd.geo.admin.ch
  DNSName: wps.geo.admin.ch
  DNSName: www.geo.admin.ch
  DNSName: www.map.geo.admin.ch
  DNSName: 2d.geo.admin.ch
  DNSName: 3d.geo.admin.ch
  DNSName: 4d.geo.admin.ch
  DNSName: geodesy.geo.admin.ch
  DNSName: reframe.geo.admin.ch
  DNSName: tms3d.geo.admin.ch
]

[10]: ObjectId: 2.5.29.14 Criticality=false
SubjectKeyIdentifier [
KeyIdentifier [
0000: BB 1D 3C 30 5C D2 B0 77   EB 42 6C A8 15 C4 FE F2  ..<0\..w.Bl.....
0010: 78 DE 5A 1D                                        x.Z.
]
]

]
  Algorithm: [SHA256withRSA]
  Signature:
0000: 99 A5 F9 FE 1D E3 BC 97   23 7E F4 47 A6 9F 32 1B  ........#..G..2.
0010: 95 AA FF 17 CE D2 BB F1   22 2A 8E 4A 42 A1 6B EC  ........"*.JB.k.
0020: F9 C0 41 AB 91 DD C7 D5   18 03 13 29 D1 AF 76 A8  ..A........)..v.
0030: 20 D9 60 07 BC 97 4F 5D   49 12 F2 B1 BB 3A F5 4F   .`...O]I....:.O
0040: 26 0C F2 FA 51 2A 6B 0E   7A C6 8F 8A F6 96 AD 70  &...Q*k.z......p
0050: 8E 7D B1 69 10 F3 E1 0B   6E A7 64 31 8A EC 40 47  ...i....n.d1..@G
0060: F3 EA 49 DE DF 25 E5 60   C7 B4 E1 38 19 07 04 CB  ..I..%.`...8....
0070: B7 A4 BB 79 6E 1E F5 D9   EC 40 BF 45 D7 AB 73 AE  ...yn....@.E..s.
0080: D5 38 FC FD 09 19 79 BA   5D 3F 01 09 7F D4 F9 12  .8....y.]?......
0090: 73 FE 2C 04 38 45 76 EC   CD 8C B6 3F 58 CC 41 36  s.,.8Ev....?X.A6
00A0: C6 39 59 31 1F AE AE 62   B5 F8 E5 3F D8 2D 94 04  .9Y1...b...?.-..
00B0: 68 BA 03 13 2B 54 82 8B   09 61 11 E9 F5 52 1B B9  h...+T...a...R..
00C0: 2F 6B 3F 4B 4D CE 77 95   4C B0 72 37 CD 8B 1C 81  /k?KM.w.L.r7....
00D0: 4B 07 91 9C 78 57 8D 45   FC FD 0D 23 E7 BF EE 52  K...xW.E...#...R
00E0: 0B 28 A4 99 EE 1A EC C7   7E A8 31 13 6E 01 70 99  .(........1.n.p.
00F0: A8 77 4E D4 4B 5A B0 55   F4 BA F7 CE 09 F6 41 41  .wN.KZ.U......AA

]
chain [1] = [
[
  Version: V3
  Subject: CN=StartCom Extended Validation Server CA, OU=StartCom Certification Authority, O=StartCom Ltd., C=IL
  Signature Algorithm: SHA256withRSA, OID = 1.2.840.113549.1.1.11

  Key:  Sun RSA public key, 2048 bits
  modulus: 23071939291136849859053275489236265828765795987503842464118192824564074186315187595162923095211717327162454177619418309127397431730655878863449733659532223616712704988684428726402942403262986992537559037795082495558032194865124136164248547372328591991625093386835432405590438603687290618623419321587432441113457391377863033950457346546285852134793421790737656091538246755934725639902921514746579470699733616588263971266933423969413848260403598564526878107161667106505621098711585897264742896533993337170004634302949772047220541854594973652385042571769572716685782504305506258237794116468748195395536515099772639816461
  public exponent: 65537
  Validity: [From: Thu Jan 01 07:00:01 CET 2009,
               To: Tue Jan 01 07:00:01 CET 2019]
  Issuer: CN=StartCom Certification Authority, OU=Secure Digital Certificate Signing, O=StartCom Ltd., C=IL
  SerialNumber: [    2a]

Certificate Extensions: 7
[1]: ObjectId: 1.3.6.1.5.5.7.1.1 Criticality=false
AuthorityInfoAccess [
  [
   accessMethod: ocsp
   accessLocation: URIName: http://ocsp.startssl.com/ca
, 
   accessMethod: caIssuers
   accessLocation: URIName: http://www.startssl.com/sfsca.crt
]
]

[2]: ObjectId: 2.5.29.35 Criticality=false
AuthorityKeyIdentifier [
KeyIdentifier [
0000: 4E 0B EF 1A A4 40 5B A5   17 69 87 30 CA 34 68 43  N....@[..i.0.4hC
0010: D0 41 AE F2                                        .A..
]
]

[3]: ObjectId: 2.5.29.19 Criticality=true
BasicConstraints:[
  CA:true
  PathLen:0
]

[4]: ObjectId: 2.5.29.31 Criticality=false
CRLDistributionPoints [
  [DistributionPoint:
     [URIName: http://www.startssl.com/sfsca.crl]
, DistributionPoint:
     [URIName: http://crl.startssl.com/sfsca.crl]
]]

[5]: ObjectId: 2.5.29.32 Criticality=false
CertificatePolicies [
  [CertificatePolicyId: [2.5.29.32.0]
[PolicyQualifierInfo: [
  qualifierID: 1.3.6.1.5.5.7.2.1
  qualifier: 0000: 16 22 68 74 74 70 3A 2F   2F 77 77 77 2E 73 74 61  ."http://www.sta
0010: 72 74 73 73 6C 2E 63 6F   6D 2F 70 6F 6C 69 63 79  rtssl.com/policy
0020: 2E 70 64 66                                        .pdf

], PolicyQualifierInfo: [
  qualifierID: 1.3.6.1.5.5.7.2.1
  qualifier: 0000: 16 24 68 74 74 70 3A 2F   2F 77 77 77 2E 73 74 61  .$http://www.sta
0010: 72 74 73 73 6C 2E 63 6F   6D 2F 65 78 74 65 6E 64  rtssl.com/extend
0020: 65 64 2E 70 64 66                                  ed.pdf

]]  ]
]

[6]: ObjectId: 2.5.29.15 Criticality=true
KeyUsage [
  Key_CertSign
  Crl_Sign
]

[7]: ObjectId: 2.5.29.14 Criticality=false
SubjectKeyIdentifier [
KeyIdentifier [
0000: A1 E1 9E 45 25 79 4D 06   D9 02 17 92 82 D5 30 89  ...E%yM.......0.
0010: 72 25 14 A0                                        r%..
]
]

]
  Algorithm: [SHA256withRSA]
  Signature:
0000: 33 4F 5A F6 98 A1 85 96   BA 50 B8 18 E9 7C A1 E5  3OZ......P......
0010: 6B E6 EE 2B EE 5E 1D 9A   63 4B B2 8C 62 05 91 B7  k..+.^..cK..b...
0020: 37 BE 3B 96 7A B7 4E 06   60 C6 71 82 02 F0 0E 55  7.;.z.N.`.q....U
0030: 2B B7 CE 22 42 58 0B F3   0C D0 ED 32 4B B4 D3 8A  +.."BX.....2K...
0040: 4B 2B 4E DF 65 37 C1 63   C1 AD 3B E8 B2 30 24 C6  K+N.e7.c..;..0$.
0050: 8B 15 EE DB AB 9C 1D DA   99 44 6B 41 E4 35 6C E9  .........DkA.5l.
0060: AD 03 F2 67 12 21 18 D6   1C CF B2 89 4A ED 73 A3  ...g.!......J.s.
0070: FF 08 06 DB 9A 78 31 29   5A 4F D8 69 4B D3 20 9F  .....x1)ZO.iK. .
0080: 11 F0 60 82 1C E5 F7 F6   AF D6 B1 5E B2 7B 18 9C  ..`........^....
0090: A8 63 D7 F3 3D 01 C6 A9   54 D3 FF DA 13 33 10 6F  .c..=...T....3.o
00A0: DD 40 11 8C 0F D2 23 99   42 5C 45 04 8A A6 67 36  .@....#.B\E...g6
00B0: 92 71 C6 CC 2B 7A EA 59   D8 1A 3E 26 FD AB B4 C4  .q..+z.Y..>&....
00C0: 74 95 9D 81 BC 4A FB D0   D5 4C 99 2B 74 42 F3 D4  t....J...L.+tB..
00D0: DD EC 75 55 9D D4 D6 A5   7E 3D 7C 77 DF 03 93 8B  ..uU.....=.w....
00E0: E6 B1 F7 35 42 A6 8F 96   0E 17 FB C5 31 2D 83 9E  ...5B.......1-..
00F0: F7 3B 72 1D 17 6A 9E 0E   C4 39 C0 B1 93 59 95 C0  .;r..j...9...Y..
0100: C1 0C 0C DE 94 2B 2C BF   56 EA BA 31 80 8B 00 F8  .....+,.V..1....
0110: 6F E2 7D 56 30 ED E0 53   F6 24 BC 5F 56 B1 4F 67  o..V0..S.$._V.Og
0120: EB 97 81 1B 3A 03 9D 2F   01 DF B7 70 F2 94 20 2E  ....:../...p.. .
0130: A3 15 54 A7 6E 54 FC 48   87 51 A7 4D 55 B2 98 99  ..T.nT.H.Q.MU...
0140: 22 7A 6B CD 64 1A 34 49   36 F4 32 88 F7 1C 49 5B  "zk.d.4I6.2...I[
0150: 15 6B A6 D6 92 2C D9 29   85 E8 69 DA C1 03 FE 33  .k...,.)..i....3
0160: A9 56 E7 23 12 10 7E 29   64 7D B7 4D 0F 0C 45 34  .V.#...)d..M..E4
0170: FF 97 58 CE 3B 5F 8D 97   48 5A 9F EE 88 49 42 F9  ..X.;_..HZ...IB.
0180: E0 44 E4 D4 37 F3 78 E1   4A 14 2E 76 6E 9F 8F DA  .D..7.x.J..vn...
0190: C9 AD 2F 9C 0C 1E 36 72   CA 7D 37 4E D4 68 7A 00  ../...6r..7N.hz.
01A0: A4 01 C9 E3 19 F9 FE CF   61 51 E7 8F 66 1A C8 B6  ........aQ..f...
01B0: 17 39 CA 37 0F 5C 84 94   96 EA CA D1 98 17 96 D4  .9.7.\..........
01C0: 28 38 A9 A3 ED 40 DC FA   7E BB E2 27 9F 80 43 09  (8...@.....'..C.
01D0: E7 21 27 CD 4E 51 79 10   EA 5C D7 A6 C2 A4 ED 80  .!'.NQy..\......
01E0: DA 16 59 B6 87 C3 89 41   E5 1A 4F 0A 37 81 02 76  ..Y....A..O.7..v
01F0: 83 A2 31 5D D1 52 55 E1   46 17 5D A7 39 A9 BE 77  ..1].RU.F.].9..w

]
***
Found trusted certificate:
[
[
  Version: V3
  Subject: CN=StartCom Certification Authority, OU=Secure Digital Certificate Signing, O=StartCom Ltd., C=IL
  Signature Algorithm: SHA1withRSA, OID = 1.2.840.113549.1.1.5

  Key:  Sun RSA public key, 4096 bits
  modulus: 789552251250282597884701306815328508964205985827488062607543264199150819501779464146286981690420748988177041993780030919530451517811288720904237273985071468440469512284971154523062731349541177414421836235833952136924818185579870972709348669634655432630570477645990566129578252176638217693511340710693958486303214352334794049077164088394612746139060696788661237576231105080627141763901273859646824393573292182923267194832625533554806290003836058197165906656795844108162275688255024008572734007610974850429346100268000195219546435675787454780584516306985716486035722903543605127829660096749368302297948258789070600653866453524661304007956232152654155506887617521558634050065571419849280567844296846727079184553313865458209634158723637787681328795393504399629170385823984753610395099252135964875349840516616433578263343032079827146971491369883451426845848136805649142980849296497031202969501327029926472200667136297649882796331571948633211294958383053906535546294511470090910733103129598446925562305780242809422466171611189461940236370349767847709394748905303004128764471435176814978966543832900219242019014240312719338968931647272384455213416831229096955860767422493495839357567307394652772383917528590159405000890379087576405604782667
  public exponent: 65537
  Validity: [From: Sun Sep 17 21:46:36 CEST 2006,
               To: Wed Sep 17 21:46:36 CEST 2036]
  Issuer: CN=StartCom Certification Authority, OU=Secure Digital Certificate Signing, O=StartCom Ltd., C=IL
  SerialNumber: [    01]

Certificate Extensions: 7
[1]: ObjectId: 2.16.840.1.113730.1.13 Criticality=false
Extension unknown: DER encoded OCTET string =
0000: 04 2B 16 29 53 74 61 72   74 43 6F 6D 20 46 72 65  .+.)StartCom Fre
0010: 65 20 53 53 4C 20 43 65   72 74 69 66 69 63 61 74  e SSL Certificat
0020: 69 6F 6E 20 41 75 74 68   6F 72 69 74 79           ion Authority


[2]: ObjectId: 2.5.29.19 Criticality=false
BasicConstraints:[
  CA:true
  PathLen:2147483647
]

[3]: ObjectId: 2.5.29.31 Criticality=false
CRLDistributionPoints [
  [DistributionPoint:
     [URIName: http://cert.startcom.org/sfsca-crl.crl]
, DistributionPoint:
     [URIName: http://crl.startcom.org/sfsca-crl.crl]
]]

[4]: ObjectId: 2.5.29.32 Criticality=false
CertificatePolicies [
  [CertificatePolicyId: [1.3.6.1.4.1.23223.1.1.1]
[PolicyQualifierInfo: [
  qualifierID: 1.3.6.1.5.5.7.2.1
  qualifier: 0000: 16 23 68 74 74 70 3A 2F   2F 63 65 72 74 2E 73 74  .#http://cert.st
0010: 61 72 74 63 6F 6D 2E 6F   72 67 2F 70 6F 6C 69 63  artcom.org/polic
0020: 79 2E 70 64 66                                     y.pdf

], PolicyQualifierInfo: [
  qualifierID: 1.3.6.1.5.5.7.2.1
  qualifier: 0000: 16 29 68 74 74 70 3A 2F   2F 63 65 72 74 2E 73 74  .)http://cert.st
0010: 61 72 74 63 6F 6D 2E 6F   72 67 2F 69 6E 74 65 72  artcom.org/inter
0020: 6D 65 64 69 61 74 65 2E   70 64 66                 mediate.pdf

], PolicyQualifierInfo: [
  qualifierID: 1.3.6.1.5.5.7.2.2
  qualifier: 0000: 30 81 C3 30 27 16 20 53   74 61 72 74 20 43 6F 6D  0..0'. Start Com
0010: 6D 65 72 63 69 61 6C 20   28 53 74 61 72 74 43 6F  mercial (StartCo
0020: 6D 29 20 4C 74 64 2E 30   03 02 01 01 1A 81 97 4C  m) Ltd.0.......L
0030: 69 6D 69 74 65 64 20 4C   69 61 62 69 6C 69 74 79  imited Liability
0040: 2C 20 72 65 61 64 20 74   68 65 20 73 65 63 74 69  , read the secti
0050: 6F 6E 20 2A 4C 65 67 61   6C 20 4C 69 6D 69 74 61  on *Legal Limita
0060: 74 69 6F 6E 73 2A 20 6F   66 20 74 68 65 20 53 74  tions* of the St
0070: 61 72 74 43 6F 6D 20 43   65 72 74 69 66 69 63 61  artCom Certifica
0080: 74 69 6F 6E 20 41 75 74   68 6F 72 69 74 79 20 50  tion Authority P
0090: 6F 6C 69 63 79 20 61 76   61 69 6C 61 62 6C 65 20  olicy available 
00A0: 61 74 20 68 74 74 70 3A   2F 2F 63 65 72 74 2E 73  at http://cert.s
00B0: 74 61 72 74 63 6F 6D 2E   6F 72 67 2F 70 6F 6C 69  tartcom.org/poli
00C0: 63 79 2E 70 64 66                                  cy.pdf

]]  ]
]

[5]: ObjectId: 2.5.29.15 Criticality=false
KeyUsage [
  DigitalSignature
  Key_Encipherment
  Key_Agreement
  Key_CertSign
  Crl_Sign
]

[6]: ObjectId: 2.16.840.1.113730.1.1 Criticality=false
NetscapeCertType [
   SSL CA
   S/MIME CA
   Object Signing CA]

[7]: ObjectId: 2.5.29.14 Criticality=false
SubjectKeyIdentifier [
KeyIdentifier [
0000: 4E 0B EF 1A A4 40 5B A5   17 69 87 30 CA 34 68 43  N....@[..i.0.4hC
0010: D0 41 AE F2                                        .A..
]
]

]
  Algorithm: [SHA1withRSA]
  Signature:
0000: 16 6C 99 F4 66 0C 34 F5   D0 85 5E 7D 0A EC DA 10  .l..f.4...^.....
0010: 4E 38 1C 5E DF A6 25 05   4B 91 32 C1 E8 3B F1 3D  N8.^..%.K.2..;.=
0020: DD 44 09 5B 07 49 8A 29   CB 66 02 B7 B1 9A F7 25  .D.[.I.).f.....%
0030: 98 09 3C 8E 1B E1 DD 36   87 2B 4B BB 68 D3 39 66  ..<....6.+K.h.9f
0040: 3D A0 26 C7 F2 39 91 1D   51 AB 82 7B 7E D5 CE 5A  =.&..9..Q......Z
0050: E4 E2 03 57 70 69 97 08   F9 5E 58 A6 0A DF 8C 06  ...Wpi...^X.....
0060: 9A 45 16 16 38 0A 5E 57   F6 62 C7 7A 02 05 E6 BC  .E..8.^W.b.z....
0070: 1E B5 F2 9E F4 A9 29 83   F8 B2 14 E3 6E 28 87 44  ......).....n(.D
0080: C3 90 1A DE 38 A9 3C AC   43 4D 64 45 CE DD 28 A9  ....8.<.CMdE..(.
0090: 5C F2 73 7B 04 F8 17 E8   AB B1 F3 2E 5C 64 6E 73  \.s.........\dns
00A0: 31 3A 12 B8 BC B3 11 E4   7D 8F 81 51 9A 3B 8D 89  1:.........Q.;..
00B0: F4 4D 93 66 7B 3C 03 ED   D3 9A 1D 9A F3 65 50 F5  .M.f.<.......eP.
00C0: A0 D0 75 9F 2F AF F0 EA   82 43 98 F8 69 9C 89 79  ..u./....C..i..y
00D0: C4 43 8E 46 72 E3 64 36   12 AF F7 25 1E 38 89 90  .C.Fr.d6...%.8..
00E0: 77 7E C3 6B 6A B9 C3 CB   44 4B AC 78 90 8B E7 C7  w..kj...DK.x....
00F0: 2C 1E 4B 11 44 C8 34 52   27 CD 0A 5D 9F 85 C1 89  ,.K.D.4R'..]....
0100: D5 1A 78 F2 95 10 53 32   DD 80 84 66 75 D9 B5 68  ..x...S2...fu..h
0110: 28 FB 61 2E BE 84 A8 38   C0 99 12 86 A5 1E 67 64  (.a....8......gd
0120: AD 06 2E 2F A9 70 85 C7   96 0F 7C 89 65 F5 8E 43  .../.p......e..C
0130: 54 0E AB DD A5 80 39 94   60 C0 34 C9 96 70 2C A3  T.....9.`.4..p,.
0140: 12 F5 1F 48 7B BD 1C 7E   6B B7 9D 90 F4 22 3B AE  ...H....k....";.
0150: F8 FC 2A CA FA 82 52 A0   EF AF 4B 55 93 EB C1 B5  ..*...R...KU....
0160: F0 22 8B AC 34 4E 26 22   04 A1 87 2C 75 4A B7 E5  ."..4N&"...,uJ..
0170: 7D 13 D7 B8 0C 64 C0 36   D2 C9 2F 86 12 8C 23 09  .....d.6../...#.
0180: C1 1B 82 3B 73 49 A3 6A   57 87 94 E5 D6 78 C5 99  ...;sI.jW....x..
0190: 43 63 E3 4D E0 77 2D E1   65 99 72 69 04 1A 47 09  Cc.M.w-.e.ri..G.
01A0: E6 0F 01 56 24 FB 1F BF   0E 79 A9 58 2E B9 C4 09  ...V$....y.X....
01B0: 01 7E 95 BA 6D 00 06 3E   B2 EA 4A 10 39 D8 D0 2B  ....m..>..J.9..+
01C0: F5 BF EC 75 BF 97 02 C5   09 1B 08 DC 55 37 E2 81  ...u........U7..
01D0: FB 37 84 43 62 20 CA E7   56 4B 65 EA FE 6C C1 24  .7.Cb ..VKe..l.$
01E0: 93 24 A1 34 EB 05 FF 9A   22 AE 9B 7D 3F F1 65 51  .$.4...."...?.eQ
01F0: 0A A6 30 6A B3 F4 88 1C   80 0D FC 72 8A E8 83 5E  ..0j.......r...^

]
main, READ: TLSv1 Handshake, length = 587
*** ECDH ServerKeyExchange
Server key: SunPKCS11-NSS EC public key, 256 bits (id 20, session object)
  public x coord: 31960169999258584656654552234769876709013153226942990812705573021592976742907
  public y coord: 18850407218951686702038003846097750636242112941349498399912511295468461707443
  parameters: secp256r1 [NIST P-256, X9.62 prime256v1] (1.2.840.10045.3.1.7)
main, READ: TLSv1 Handshake, length = 4
*** ServerHelloDone
*** ECDHClientKeyExchange
ECDH Public value:  { 4, 34, 136, 235, 163, 114, 208, 87, 138, 241, 10, 22, 112, 141, 45, 4, 130, 245, 39, 238, 94, 71, 100, 215, 122, 12, 214, 238, 190, 23, 77, 126, 217, 114, 87, 13, 232, 227, 107, 213, 78, 83, 222, 84, 204, 155, 187, 222, 54, 128, 154, 167, 139, 176, 47, 23, 189, 112, 128, 160, 229, 230, 126, 96, 136 }
main, WRITE: TLSv1 Handshake, length = 70
SESSION KEYGEN:
PreMaster Secret:
0000: C9 D9 26 BC 74 14 61 8A   7B C4 AB 94 FD 98 7C 43  ..&.t.a........C
0010: 70 65 B4 4F D0 FC D7 0C   A4 FC 85 4F 8E FB 30 9B  pe.O.......O..0.
CONNECTION KEYGEN:
Client Nonce:
0000: 59 10 5D A6 93 E4 26 FA   8D 0F C4 8B 54 73 32 DC  Y.]...&.....Ts2.
0010: 0A DD 75 DC 5D 9E 57 01   0E BD 16 18 DE 64 9C 16  ..u.].W......d..
Server Nonce:
0000: E2 AB 57 12 AA AB DA B8   F2 B0 6B 04 F2 8C 14 EA  ..W.......k.....
0010: BD 69 5D 66 B2 5C 84 20   D8 AB CC D2 BE 7F 8D 51  .i]f.\. .......Q
Master Secret:
0000: E1 C8 76 94 D3 88 2E 99   83 2C 25 29 12 5E 91 3D  ..v......,%).^.=
0010: 2B C1 BE 9E 94 DE C6 44   C7 A0 9A 48 E9 FD 22 2F  +......D...H.."/
0020: D5 79 98 4C 88 A2 4A 34   6F 9B 55 B1 28 9C 95 82  .y.L..J4o.U.(...
Client MAC write Secret:
0000: D6 2D CA EB 30 CA 17 59   13 BE 80 D8 28 39 E9 E4  .-..0..Y....(9..
0010: 70 33 C0 CA                                        p3..
Server MAC write Secret:
0000: 9F FB FC FA 3B 91 BA 9D   FC 90 49 D4 35 D7 DF EC  ....;.....I.5...
0010: 2B 68 AC B9                                        +h..
Client write key:
0000: 4E 37 7D 04 C3 0F 37 59   31 38 C8 79 CA 29 28 5B  N7....7Y18.y.)([
Server write key:
0000: 90 97 CB 27 08 77 C7 32   FB E1 6C F3 4E D0 5F A3  ...'.w.2..l.N._.
Client write IV:
0000: 32 E0 FC 9E A8 55 F3 42   83 75 68 1B BC 19 E7 7C  2....U.B.uh.....
Server write IV:
0000: 11 30 45 0C 51 27 A5 03   22 B0 63 39 C4 B0 EF DF  .0E.Q'..".c9....
main, WRITE: TLSv1 Change Cipher Spec, length = 1
*** Finished
verify_data:  { 99, 196, 126, 23, 47, 99, 111, 144, 103, 118, 53, 1 }
***
main, WRITE: TLSv1 Handshake, length = 48
main, READ: TLSv1 Change Cipher Spec, length = 1
main, READ: TLSv1 Handshake, length = 48
*** Finished
verify_data:  { 199, 74, 30, 162, 243, 144, 154, 120, 188, 44, 186, 227 }
***
%% Cached client session: [Session-2, TLS_ECDHE_RSA_WITH_AES_128_CBC_SHA]
main, WRITE: TLSv1 Application Data, length = 352
main, READ: TLSv1 Application Data, length = 832
2017-05-08 13:59:34,252 [main] INFO      org.mapfish.print.PDFUtils - ----->Closing connection
2017-05-08 13:59:34,285 [main] INFO  ClassPathXmlApplicationContext - Closing org.springframework.context.support.ClassPathXmlApplicationContext@43271a80: startup date [Mon May 08 13:59:32 CEST 2017]; root of context hierarchy
2017-05-08 13:59:34,285 [main] INFO  ClassPathXmlApplicationContext - Closing org.springframework.context.support.ClassPathXmlApplicationContext@43271a80: startup date [Mon May 08 13:59:32 CEST 2017]; root of context hierarchy
2017-05-08 13:59:34,286 [main] INFO  ort.DefaultListableBeanFactory - Destroying singletons in org.springframework.beans.factory.support.DefaultListableBeanFactory@62acfe94: defining beans [org.springframework.context.annotation.internalConfigurationAnnotationProcessor,org.springframework.context.annotation.internalAutowiredAnnotationProcessor,org.springframework.context.annotation.internalRequiredAnnotationProcessor,org.springframework.context.annotation.internalCommonAnnotationProcessor,mapPrinter,configFactory,threadResources,mapReaderFactoryFinder,wms-MapReaderFactory,mapServer-MapReaderFactory,tileCache-MapReaderFactory,osm-MapReaderFactory,xyz-MapReaderFactory,tms-MapReaderFactory,vector-MapReaderFactory,image-MapReaderFactory,tiledGoogle-MapReaderFactory,google-MapReaderFactory,kaMapCache-ReaderFactory,kaMap-ReaderFactory,wmts-ReaderFactory,outputFactory,imageMagickOutput,fileCachingJaiMosaicOutputFactory,inMemoryJaiMosaicOutputFactory,pdfOutputFactory,metricRegistry,healthCheckRegistry,loggingMetricsConfigurator,jvmMetricsConfigurator,jmlMetricsReporter,org.springframework.context.annotation.ConfigurationClassPostProcessor$ImportAwareBeanPostProcessor#0]; root of factory hierarchy
2017-05-08 13:59:34,286 [main] INFO  ort.DefaultListableBeanFactory - Destroying singletons in org.springframework.beans.factory.support.DefaultListableBeanFactory@62acfe94: defining beans [org.springframework.context.annotation.internalConfigurationAnnotationProcessor,org.springframework.context.annotation.internalAutowiredAnnotationProcessor,org.springframework.context.annotation.internalRequiredAnnotationProcessor,org.springframework.context.annotation.internalCommonAnnotationProcessor,mapPrinter,configFactory,threadResources,mapReaderFactoryFinder,wms-MapReaderFactory,mapServer-MapReaderFactory,tileCache-MapReaderFactory,osm-MapReaderFactory,xyz-MapReaderFactory,tms-MapReaderFactory,vector-MapReaderFactory,image-MapReaderFactory,tiledGoogle-MapReaderFactory,google-MapReaderFactory,kaMapCache-ReaderFactory,kaMap-ReaderFactory,wmts-ReaderFactory,outputFactory,imageMagickOutput,fileCachingJaiMosaicOutputFactory,inMemoryJaiMosaicOutputFactory,pdfOutputFactory,metricRegistry,healthCheckRegistry,loggingMetricsConfigurator,jvmMetricsConfigurator,jmlMetricsReporter,org.springframework.context.annotation.ConfigurationClassPostProcessor$ImportAwareBeanPostProcessor#0]; root of factory hierarchy
main, called close()
main, called closeInternal(true)
main, SEND TLSv1 ALERT:  warning, description = close_notify
main, WRITE: TLSv1 Alert, length = 32
main, called closeSocket(selfInitiated)
main, called close()
main, called closeInternal(true)
main, called close()
main, called closeInternal(true)
main, called close()
main, called closeInternal(true)
main, SEND TLSv1 ALERT:  warning, description = close_notify
main, WRITE: TLSv1 Alert, length = 32
main, called closeSocket(selfInitiated)
main, called close()
main, called closeInternal(true)
main, called close()
main, called closeInternal(true)
