2017-05-08 13:59:27,392 [main] INFO  ClassPathXmlApplicationContext - Refreshing org.springframework.context.support.ClassPathXmlApplicationContext@43a63a1c: startup date [Mon May 08 13:59:27 CEST 2017]; root of context hierarchy
2017-05-08 13:59:27,392 [main] INFO  ClassPathXmlApplicationContext - Refreshing org.springframework.context.support.ClassPathXmlApplicationContext@43a63a1c: startup date [Mon May 08 13:59:27 CEST 2017]; root of context hierarchy
2017-05-08 13:59:27,436 [main] INFO  ry.xml.XmlBeanDefinitionReader - Loading XML bean definitions from class path resource [mapfish-spring-application-context.xml]
2017-05-08 13:59:27,436 [main] INFO  ry.xml.XmlBeanDefinitionReader - Loading XML bean definitions from class path resource [mapfish-spring-application-context.xml]
2017-05-08 13:59:27,721 [main] INFO  ort.DefaultListableBeanFactory - Pre-instantiating singletons in org.springframework.beans.factory.support.DefaultListableBeanFactory@62acfe94: defining beans [org.springframework.context.annotation.internalConfigurationAnnotationProcessor,org.springframework.context.annotation.internalAutowiredAnnotationProcessor,org.springframework.context.annotation.internalRequiredAnnotationProcessor,org.springframework.context.annotation.internalCommonAnnotationProcessor,mapPrinter,configFactory,threadResources,mapReaderFactoryFinder,wms-MapReaderFactory,mapServer-MapReaderFactory,tileCache-MapReaderFactory,osm-MapReaderFactory,xyz-MapReaderFactory,tms-MapReaderFactory,vector-MapReaderFactory,image-MapReaderFactory,tiledGoogle-MapReaderFactory,google-MapReaderFactory,kaMapCache-ReaderFactory,kaMap-ReaderFactory,wmts-ReaderFactory,outputFactory,imageMagickOutput,fileCachingJaiMosaicOutputFactory,inMemoryJaiMosaicOutputFactory,pdfOutputFactory,metricRegistry,healthCheckRegistry,loggingMetricsConfigurator,jvmMetricsConfigurator,jmlMetricsReporter,org.springframework.context.annotation.ConfigurationClassPostProcessor$ImportAwareBeanPostProcessor#0]; root of factory hierarchy
2017-05-08 13:59:27,721 [main] INFO  ort.DefaultListableBeanFactory - Pre-instantiating singletons in org.springframework.beans.factory.support.DefaultListableBeanFactory@62acfe94: defining beans [org.springframework.context.annotation.internalConfigurationAnnotationProcessor,org.springframework.context.annotation.internalAutowiredAnnotationProcessor,org.springframework.context.annotation.internalRequiredAnnotationProcessor,org.springframework.context.annotation.internalCommonAnnotationProcessor,mapPrinter,configFactory,threadResources,mapReaderFactoryFinder,wms-MapReaderFactory,mapServer-MapReaderFactory,tileCache-MapReaderFactory,osm-MapReaderFactory,xyz-MapReaderFactory,tms-MapReaderFactory,vector-MapReaderFactory,image-MapReaderFactory,tiledGoogle-MapReaderFactory,google-MapReaderFactory,kaMapCache-ReaderFactory,kaMap-ReaderFactory,wmts-ReaderFactory,outputFactory,imageMagickOutput,fileCachingJaiMosaicOutputFactory,inMemoryJaiMosaicOutputFactory,pdfOutputFactory,metricRegistry,healthCheckRegistry,loggingMetricsConfigurator,jvmMetricsConfigurator,jmlMetricsReporter,org.springframework.context.annotation.ConfigurationClassPostProcessor$ImportAwareBeanPostProcessor#0]; root of factory hierarchy
2017-05-08 13:59:28,164 [main] WARN  ish.print.output.OutputFactory - OutputFormatFactory org.mapfish.print.output.FileCachingJaiMosaicOutputFactory is disabled: TIFF not supported by ImageIO
2017-05-08 13:59:28,165 [main] INFO  ish.print.output.OutputFactory - OutputFormat chosen for pdf is PdfOutputFactory
2017-05-08 13:59:28,172 [main] WARN  ish.print.output.OutputFactory - OutputFormatFactory org.mapfish.print.output.FileCachingJaiMosaicOutputFactory is disabled: TIFF not supported by ImageIO
2017-05-08 13:59:28,172 [main] INFO  ish.print.output.OutputFactory - OutputFormat chosen for pdf is PdfOutputFactory
2017-05-08 13:59:28,298 [tilesReader1] INFO      org.mapfish.print.PDFUtils - -->Alternative: https://mf-geoadmin3.prod.bgdi.ch/master/688362f/1704261351/1704261351/img/marker.png
2017-05-08 13:59:28,299 [tilesReader1] INFO      org.mapfish.print.PDFUtils - -->http_mf-geoadmin3.prod.bgdi.ch
keyStore is : 
keyStore type is : jks
keyStore provider is : 
init keystore
init keymanager of type SunX509
trustStore is: /usr/lib/jvm/java-7-openjdk-amd64/jre/lib/security/cacerts
trustStore type is : jks
trustStore provider is : 
init truststore
adding as trusted cert:
  Subject: CN=Secure Global CA, O=SecureTrust Corporation, C=US
  Issuer:  CN=Secure Global CA, O=SecureTrust Corporation, C=US
  Algorithm: RSA; Serial number: 0x75622a4e8d48a894df413c8f0f8eaa5
  Valid from Tue Nov 07 20:42:28 CET 2006 until Mon Dec 31 20:52:06 CET 2029

adding as trusted cert:
  Subject: CN=Buypass Class 2 CA 1, O=Buypass AS-983163327, C=NO
  Issuer:  CN=Buypass Class 2 CA 1, O=Buypass AS-983163327, C=NO
  Algorithm: RSA; Serial number: 0x1
  Valid from Fri Oct 13 12:25:09 CEST 2006 until Thu Oct 13 12:25:09 CEST 2016

adding as trusted cert:
  Subject: CN=E-Tugra Certification Authority, OU=E-Tugra Sertifikasyon Merkezi, O=E-Tuğra EBG Bilişim Teknolojileri ve Hizmetleri A.Ş., L=Ankara, C=TR
  Issuer:  CN=E-Tugra Certification Authority, OU=E-Tugra Sertifikasyon Merkezi, O=E-Tuğra EBG Bilişim Teknolojileri ve Hizmetleri A.Ş., L=Ankara, C=TR
  Algorithm: RSA; Serial number: 0x6a683e9c519bcb53
  Valid from Tue Mar 05 13:09:48 CET 2013 until Fri Mar 03 13:09:48 CET 2023

adding as trusted cert:
  Subject: CN=QuoVadis Root CA 2 G3, O=QuoVadis Limited, C=BM
  Issuer:  CN=QuoVadis Root CA 2 G3, O=QuoVadis Limited, C=BM
  Algorithm: RSA; Serial number: 0x445734245b81899b35f2ceb82b3b5ba726f07528
  Valid from Thu Jan 12 19:59:32 CET 2012 until Sun Jan 12 19:59:32 CET 2042

adding as trusted cert:
  Subject: CN=DigiCert Assured ID Root G3, OU=www.digicert.com, O=DigiCert Inc, C=US
  Issuer:  CN=DigiCert Assured ID Root G3, OU=www.digicert.com, O=DigiCert Inc, C=US
  Algorithm: EC; Serial number: 0xba15afa1ddfa0b54944afcd24a06cec
  Valid from Thu Aug 01 14:00:00 CEST 2013 until Fri Jan 15 13:00:00 CET 2038

adding as trusted cert:
  Subject: OU=Trustis FPS Root CA, O=Trustis Limited, C=GB
  Issuer:  OU=Trustis FPS Root CA, O=Trustis Limited, C=GB
  Algorithm: RSA; Serial number: 0x1b1fadb620f924d3366bf7c7f18ca059
  Valid from Tue Dec 23 13:14:06 CET 2003 until Sun Jan 21 12:36:54 CET 2024

adding as trusted cert:
  Subject: CN=Global Chambersign Root - 2008, O=AC Camerfirma S.A., SERIALNUMBER=A82743287, L=Madrid (see current address at www.camerfirma.com/address), C=EU
  Issuer:  CN=Global Chambersign Root - 2008, O=AC Camerfirma S.A., SERIALNUMBER=A82743287, L=Madrid (see current address at www.camerfirma.com/address), C=EU
  Algorithm: RSA; Serial number: 0xc9cdd3e9d57d23ce
  Valid from Fri Aug 01 14:31:40 CEST 2008 until Sat Jul 31 14:31:40 CEST 2038

adding as trusted cert:
  Subject: CN=AddTrust Qualified CA Root, OU=AddTrust TTP Network, O=AddTrust AB, C=SE
  Issuer:  CN=AddTrust Qualified CA Root, OU=AddTrust TTP Network, O=AddTrust AB, C=SE
  Algorithm: RSA; Serial number: 0x1
  Valid from Tue May 30 12:44:50 CEST 2000 until Sat May 30 12:44:50 CEST 2020

adding as trusted cert:
  Subject: CN=ISRG Root X1, O=Internet Security Research Group, C=US
  Issuer:  CN=ISRG Root X1, O=Internet Security Research Group, C=US
  Algorithm: RSA; Serial number: 0x8210cfb0d240e3594463e0bb63828b00
  Valid from Thu Jun 04 13:04:38 CEST 2015 until Mon Jun 04 13:04:38 CEST 2035

adding as trusted cert:
  Subject: CN=StartCom Certification Authority, OU=Secure Digital Certificate Signing, O=StartCom Ltd., C=IL
  Issuer:  CN=StartCom Certification Authority, OU=Secure Digital Certificate Signing, O=StartCom Ltd., C=IL
  Algorithm: RSA; Serial number: 0x1
  Valid from Sun Sep 17 21:46:36 CEST 2006 until Wed Sep 17 21:46:36 CEST 2036

adding as trusted cert:
  Subject: CN=QuoVadis Root Certification Authority, OU=Root Certification Authority, O=QuoVadis Limited, C=BM
  Issuer:  CN=QuoVadis Root Certification Authority, OU=Root Certification Authority, O=QuoVadis Limited, C=BM
  Algorithm: RSA; Serial number: 0x3ab6508b
  Valid from Mon Mar 19 19:33:33 CET 2001 until Wed Mar 17 19:33:33 CET 2021

adding as trusted cert:
  Subject: CN=AffirmTrust Premium ECC, O=AffirmTrust, C=US
  Issuer:  CN=AffirmTrust Premium ECC, O=AffirmTrust, C=US
  Algorithm: EC; Serial number: 0x7497258ac73f7a54
  Valid from Fri Jan 29 15:20:24 CET 2010 until Mon Dec 31 15:20:24 CET 2040

adding as trusted cert:
  Subject: CN=SecureSign RootCA11, O="Japan Certification Services, Inc.", C=JP
  Issuer:  CN=SecureSign RootCA11, O="Japan Certification Services, Inc.", C=JP
  Algorithm: RSA; Serial number: 0x1
  Valid from Wed Apr 08 06:56:47 CEST 2009 until Sun Apr 08 06:56:47 CEST 2029

adding as trusted cert:
  Subject: CN=XRamp Global Certification Authority, O=XRamp Security Services Inc, OU=www.xrampsecurity.com, C=US
  Issuer:  CN=XRamp Global Certification Authority, O=XRamp Security Services Inc, OU=www.xrampsecurity.com, C=US
  Algorithm: RSA; Serial number: 0x50946cec18ead59c4dd597ef758fa0ad
  Valid from Mon Nov 01 18:14:04 CET 2004 until Mon Jan 01 06:37:19 CET 2035

adding as trusted cert:
  Subject: CN=Equifax Secure Global eBusiness CA-1, O=Equifax Secure Inc., C=US
  Issuer:  CN=Equifax Secure Global eBusiness CA-1, O=Equifax Secure Inc., C=US
  Algorithm: RSA; Serial number: 0x1
  Valid from Mon Jun 21 06:00:00 CEST 1999 until Sun Jun 21 06:00:00 CEST 2020

adding as trusted cert:
  Subject: CN=AffirmTrust Commercial, O=AffirmTrust, C=US
  Issuer:  CN=AffirmTrust Commercial, O=AffirmTrust, C=US
  Algorithm: RSA; Serial number: 0x7777062726a9b17c
  Valid from Fri Jan 29 15:06:06 CET 2010 until Tue Dec 31 15:06:06 CET 2030

adding as trusted cert:
  Subject: CN=IdenTrust Commercial Root CA 1, O=IdenTrust, C=US
  Issuer:  CN=IdenTrust Commercial Root CA 1, O=IdenTrust, C=US
  Algorithm: RSA; Serial number: 0xa0142800000014523c844b500000002
  Valid from Thu Jan 16 19:12:23 CET 2014 until Mon Jan 16 19:12:23 CET 2034

adding as trusted cert:
  Subject: CN=QuoVadis Root CA 3 G3, O=QuoVadis Limited, C=BM
  Issuer:  CN=QuoVadis Root CA 3 G3, O=QuoVadis Limited, C=BM
  Algorithm: RSA; Serial number: 0x2ef59b0228a7db7affd5a3a9eebd03a0cf126a1d
  Valid from Thu Jan 12 21:26:32 CET 2012 until Sun Jan 12 21:26:32 CET 2042

adding as trusted cert:
  Subject: CN=thawte Primary Root CA - G3, OU="(c) 2008 thawte, Inc. - For authorized use only", OU=Certification Services Division, O="thawte, Inc.", C=US
  Issuer:  CN=thawte Primary Root CA - G3, OU="(c) 2008 thawte, Inc. - For authorized use only", OU=Certification Services Division, O="thawte, Inc.", C=US
  Algorithm: RSA; Serial number: 0x600197b746a7eab4b49ad64b2ff790fb
  Valid from Wed Apr 02 02:00:00 CEST 2008 until Wed Dec 02 00:59:59 CET 2037

adding as trusted cert:
  Subject: CN=Juur-SK, O=AS Sertifitseerimiskeskus, C=EE, EMAILADDRESS=pki@sk.ee
  Issuer:  CN=Juur-SK, O=AS Sertifitseerimiskeskus, C=EE, EMAILADDRESS=pki@sk.ee
  Algorithm: RSA; Serial number: 0x3b8e4bfc
  Valid from Thu Aug 30 16:23:01 CEST 2001 until Fri Aug 26 16:23:01 CEST 2016

adding as trusted cert:
  Subject: CN=Baltimore CyberTrust Root, OU=CyberTrust, O=Baltimore, C=IE
  Issuer:  CN=Baltimore CyberTrust Root, OU=CyberTrust, O=Baltimore, C=IE
  Algorithm: RSA; Serial number: 0x20000b9
  Valid from Fri May 12 20:46:00 CEST 2000 until Tue May 13 01:59:00 CEST 2025

adding as trusted cert:
  Subject: CN=TÜBİTAK UEKAE Kök Sertifika Hizmet Sağlayıcısı - Sürüm 3, OU=Kamu Sertifikasyon Merkezi, OU=Ulusal Elektronik ve Kriptoloji Araştırma Enstitüsü - UEKAE, O=Türkiye Bilimsel ve Teknolojik Araştırma Kurumu - TÜBİTAK, L=Gebze - Kocaeli, C=TR
  Issuer:  CN=TÜBİTAK UEKAE Kök Sertifika Hizmet Sağlayıcısı - Sürüm 3, OU=Kamu Sertifikasyon Merkezi, OU=Ulusal Elektronik ve Kriptoloji Araştırma Enstitüsü - UEKAE, O=Türkiye Bilimsel ve Teknolojik Araştırma Kurumu - TÜBİTAK, L=Gebze - Kocaeli, C=TR
  Algorithm: RSA; Serial number: 0x11
  Valid from Fri Aug 24 13:37:07 CEST 2007 until Mon Aug 21 13:37:07 CEST 2017

adding as trusted cert:
  Subject: OU=Class 1 Public Primary Certification Authority, O="VeriSign, Inc.", C=US
  Issuer:  OU=Class 1 Public Primary Certification Authority, O="VeriSign, Inc.", C=US
  Algorithm: RSA; Serial number: 0x3f691e819cf09a4af373ffb948a2e4dd
  Valid from Mon Jan 29 01:00:00 CET 1996 until Thu Aug 03 01:59:59 CEST 2028

adding as trusted cert:
  Subject: OU=ePKI Root Certification Authority, O="Chunghwa Telecom Co., Ltd.", C=TW
  Issuer:  OU=ePKI Root Certification Authority, O="Chunghwa Telecom Co., Ltd.", C=TW
  Algorithm: RSA; Serial number: 0x15c8bd65475cafb897005ee406d2bc9d
  Valid from Mon Dec 20 03:31:27 CET 2004 until Wed Dec 20 03:31:27 CET 2034

adding as trusted cert:
  Subject: CN=TeliaSonera Root CA v1, O=TeliaSonera
  Issuer:  CN=TeliaSonera Root CA v1, O=TeliaSonera
  Algorithm: RSA; Serial number: 0x95be16a0f72e46f17b398272fa8bcd96
  Valid from Thu Oct 18 14:00:50 CEST 2007 until Mon Oct 18 14:00:50 CEST 2032

adding as trusted cert:
  Subject: CN=QuoVadis Root CA 2, O=QuoVadis Limited, C=BM
  Issuer:  CN=QuoVadis Root CA 2, O=QuoVadis Limited, C=BM
  Algorithm: RSA; Serial number: 0x509
  Valid from Fri Nov 24 19:27:00 CET 2006 until Mon Nov 24 19:23:33 CET 2031

adding as trusted cert:
  Subject: EMAILADDRESS=igca@sgdn.pm.gouv.fr, CN=IGC/A, OU=DCSSI, O=PM/SGDN, L=Paris, ST=France, C=FR
  Issuer:  EMAILADDRESS=igca@sgdn.pm.gouv.fr, CN=IGC/A, OU=DCSSI, O=PM/SGDN, L=Paris, ST=France, C=FR
  Algorithm: RSA; Serial number: 0x3911451094
  Valid from Fri Dec 13 15:29:23 CET 2002 until Sat Oct 17 16:29:22 CEST 2020

adding as trusted cert:
  Subject: CN=Entrust.net Certification Authority (2048), OU=(c) 1999 Entrust.net Limited, OU=www.entrust.net/CPS_2048 incorp. by ref. (limits liab.), O=Entrust.net
  Issuer:  CN=Entrust.net Certification Authority (2048), OU=(c) 1999 Entrust.net Limited, OU=www.entrust.net/CPS_2048 incorp. by ref. (limits liab.), O=Entrust.net
  Algorithm: RSA; Serial number: 0x3863def8
  Valid from Fri Dec 24 18:50:51 CET 1999 until Tue Jul 24 16:15:12 CEST 2029

adding as trusted cert:
  Subject: CN=Trusted Certificate Services, O=Comodo CA Limited, L=Salford, ST=Greater Manchester, C=GB
  Issuer:  CN=Trusted Certificate Services, O=Comodo CA Limited, L=Salford, ST=Greater Manchester, C=GB
  Algorithm: RSA; Serial number: 0x1
  Valid from Thu Jan 01 01:00:00 CET 2004 until Mon Jan 01 00:59:59 CET 2029

adding as trusted cert:
  Subject: CN=TÜRKTRUST Elektronik Sertifika Hizmet Sağlayıcısı H5, O=TÜRKTRUST Bilgi İletişim ve Bilişim Güvenliği Hizmetleri A.Ş., L=Ankara, C=TR
  Issuer:  CN=TÜRKTRUST Elektronik Sertifika Hizmet Sağlayıcısı H5, O=TÜRKTRUST Bilgi İletişim ve Bilişim Güvenliği Hizmetleri A.Ş., L=Ankara, C=TR
  Algorithm: RSA; Serial number: 0x8e17fe242081
  Valid from Tue Apr 30 10:07:01 CEST 2013 until Fri Apr 28 10:07:01 CEST 2023

adding as trusted cert:
  Subject: OU=VeriSign Trust Network, OU="(c) 1998 VeriSign, Inc. - For authorized use only", OU=Class 2 Public Primary Certification Authority - G2, O="VeriSign, Inc.", C=US
  Issuer:  OU=VeriSign Trust Network, OU="(c) 1998 VeriSign, Inc. - For authorized use only", OU=Class 2 Public Primary Certification Authority - G2, O="VeriSign, Inc.", C=US
  Algorithm: RSA; Serial number: 0xb92f60cc889fa17a4609b85b706c8aaf
  Valid from Mon May 18 02:00:00 CEST 1998 until Wed Aug 02 01:59:59 CEST 2028

adding as trusted cert:
  Subject: CN=COMODO Certification Authority, O=COMODO CA Limited, L=Salford, ST=Greater Manchester, C=GB
  Issuer:  CN=COMODO Certification Authority, O=COMODO CA Limited, L=Salford, ST=Greater Manchester, C=GB
  Algorithm: RSA; Serial number: 0x4e812d8a8265e00b02ee3e350246e53d
  Valid from Fri Dec 01 01:00:00 CET 2006 until Tue Jan 01 00:59:59 CET 2030

adding as trusted cert:
  Subject: OU=RSA Security 2048 V3, O=RSA Security Inc
  Issuer:  OU=RSA Security 2048 V3, O=RSA Security Inc
  Algorithm: RSA; Serial number: 0xa0101010000027c0000000a00000002
  Valid from Thu Feb 22 21:39:23 CET 2001 until Sun Feb 22 21:39:23 CET 2026

adding as trusted cert:
  Subject: CN=GeoTrust Global CA 2, O=GeoTrust Inc., C=US
  Issuer:  CN=GeoTrust Global CA 2, O=GeoTrust Inc., C=US
  Algorithm: RSA; Serial number: 0x1
  Valid from Thu Mar 04 06:00:00 CET 2004 until Mon Mar 04 06:00:00 CET 2019

adding as trusted cert:
  Subject: CN=GeoTrust Universal CA, O=GeoTrust Inc., C=US
  Issuer:  CN=GeoTrust Universal CA, O=GeoTrust Inc., C=US
  Algorithm: RSA; Serial number: 0x1
  Valid from Thu Mar 04 06:00:00 CET 2004 until Sun Mar 04 06:00:00 CET 2029

adding as trusted cert:
  Subject: CN=China Internet Network Information Center EV Certificates Root, O=China Internet Network Information Center, C=CN
  Issuer:  CN=China Internet Network Information Center EV Certificates Root, O=China Internet Network Information Center, C=CN
  Algorithm: RSA; Serial number: 0x489f0001
  Valid from Tue Aug 31 09:11:25 CEST 2010 until Sat Aug 31 09:11:25 CEST 2030

adding as trusted cert:
  Subject: CN=DigiCert Global Root G3, OU=www.digicert.com, O=DigiCert Inc, C=US
  Issuer:  CN=DigiCert Global Root G3, OU=www.digicert.com, O=DigiCert Inc, C=US
  Algorithm: EC; Serial number: 0x55556bcf25ea43535c3a40fd5ab4572
  Valid from Thu Aug 01 14:00:00 CEST 2013 until Fri Jan 15 13:00:00 CET 2038

adding as trusted cert:
  Subject: CN=GeoTrust Universal CA 2, O=GeoTrust Inc., C=US
  Issuer:  CN=GeoTrust Universal CA 2, O=GeoTrust Inc., C=US
  Algorithm: RSA; Serial number: 0x1
  Valid from Thu Mar 04 06:00:00 CET 2004 until Sun Mar 04 06:00:00 CET 2029

adding as trusted cert:
  Subject: CN=Certinomis - Autorité Racine, OU=0002 433998903, O=Certinomis, C=FR
  Issuer:  CN=Certinomis - Autorité Racine, OU=0002 433998903, O=Certinomis, C=FR
  Algorithm: RSA; Serial number: 0x1
  Valid from Wed Sep 17 10:28:59 CEST 2008 until Sun Sep 17 10:28:59 CEST 2028

adding as trusted cert:
  Subject: CN=DigiCert Global Root CA, OU=www.digicert.com, O=DigiCert Inc, C=US
  Issuer:  CN=DigiCert Global Root CA, OU=www.digicert.com, O=DigiCert Inc, C=US
  Algorithm: RSA; Serial number: 0x83be056904246b1a1756ac95991c74a
  Valid from Fri Nov 10 01:00:00 CET 2006 until Mon Nov 10 01:00:00 CET 2031

adding as trusted cert:
  Subject: CN=Class 2 Primary CA, O=Certplus, C=FR
  Issuer:  CN=Class 2 Primary CA, O=Certplus, C=FR
  Algorithm: RSA; Serial number: 0x85bd4bf3d8dae369f694d75fc3a54423
  Valid from Wed Jul 07 19:05:00 CEST 1999 until Sun Jul 07 01:59:59 CEST 2019

adding as trusted cert:
  Subject: CN=AddTrust External CA Root, OU=AddTrust External TTP Network, O=AddTrust AB, C=SE
  Issuer:  CN=AddTrust External CA Root, OU=AddTrust External TTP Network, O=AddTrust AB, C=SE
  Algorithm: RSA; Serial number: 0x1
  Valid from Tue May 30 12:48:38 CEST 2000 until Sat May 30 12:48:38 CEST 2020

adding as trusted cert:
  Subject: CN=NetLock Arany (Class Gold) Főtanúsítvány, OU=Tanúsítványkiadók (Certification Services), O=NetLock Kft., L=Budapest, C=HU
  Issuer:  CN=NetLock Arany (Class Gold) Főtanúsítvány, OU=Tanúsítványkiadók (Certification Services), O=NetLock Kft., L=Budapest, C=HU
  Algorithm: RSA; Serial number: 0x49412ce40010
  Valid from Thu Dec 11 16:08:21 CET 2008 until Wed Dec 06 16:08:21 CET 2028

adding as trusted cert:
  Subject: OU=Equifax Secure Certificate Authority, O=Equifax, C=US
  Issuer:  OU=Equifax Secure Certificate Authority, O=Equifax, C=US
  Algorithm: RSA; Serial number: 0x35def4cf
  Valid from Sat Aug 22 18:41:51 CEST 1998 until Wed Aug 22 18:41:51 CEST 2018

adding as trusted cert:
  Subject: OU=Starfield Class 2 Certification Authority, O="Starfield Technologies, Inc.", C=US
  Issuer:  OU=Starfield Class 2 Certification Authority, O="Starfield Technologies, Inc.", C=US
  Algorithm: RSA; Serial number: 0x0
  Valid from Tue Jun 29 19:39:16 CEST 2004 until Thu Jun 29 19:39:16 CEST 2034

adding as trusted cert:
  Subject: CN=Chambers of Commerce Root - 2008, O=AC Camerfirma S.A., SERIALNUMBER=A82743287, L=Madrid (see current address at www.camerfirma.com/address), C=EU
  Issuer:  CN=Chambers of Commerce Root - 2008, O=AC Camerfirma S.A., SERIALNUMBER=A82743287, L=Madrid (see current address at www.camerfirma.com/address), C=EU
  Algorithm: RSA; Serial number: 0xa3da427ea4b1aeda
  Valid from Fri Aug 01 14:29:50 CEST 2008 until Sat Jul 31 14:29:50 CEST 2038

adding as trusted cert:
  Subject: CN=Equifax Secure eBusiness CA-1, O=Equifax Secure Inc., C=US
  Issuer:  CN=Equifax Secure eBusiness CA-1, O=Equifax Secure Inc., C=US
  Algorithm: RSA; Serial number: 0x4
  Valid from Mon Jun 21 06:00:00 CEST 1999 until Sun Jun 21 06:00:00 CEST 2020

adding as trusted cert:
  Subject: CN=DigiCert Assured ID Root CA, OU=www.digicert.com, O=DigiCert Inc, C=US
  Issuer:  CN=DigiCert Assured ID Root CA, OU=www.digicert.com, O=DigiCert Inc, C=US
  Algorithm: RSA; Serial number: 0xce7e0e517d846fe8fe560fc1bf03039
  Valid from Fri Nov 10 01:00:00 CET 2006 until Mon Nov 10 01:00:00 CET 2031

adding as trusted cert:
  Subject: CN=Root CA Generalitat Valenciana, OU=PKIGVA, O=Generalitat Valenciana, C=ES
  Issuer:  CN=Root CA Generalitat Valenciana, OU=PKIGVA, O=Generalitat Valenciana, C=ES
  Algorithm: RSA; Serial number: 0x3b45e568
  Valid from Fri Jul 06 18:22:47 CEST 2001 until Thu Jul 01 17:22:47 CEST 2021

adding as trusted cert:
  Subject: CN=CFCA EV ROOT, O=China Financial Certification Authority, C=CN
  Issuer:  CN=CFCA EV ROOT, O=China Financial Certification Authority, C=CN
  Algorithm: RSA; Serial number: 0x184accd6
  Valid from Wed Aug 08 05:07:01 CEST 2012 until Mon Dec 31 04:07:01 CET 2029

adding as trusted cert:
  Subject: CN=GlobalSign Root CA, OU=Root CA, O=GlobalSign nv-sa, C=BE
  Issuer:  CN=GlobalSign Root CA, OU=Root CA, O=GlobalSign nv-sa, C=BE
  Algorithm: RSA; Serial number: 0x40000000001154b5ac394
  Valid from Tue Sep 01 14:00:00 CEST 1998 until Fri Jan 28 13:00:00 CET 2028

adding as trusted cert:
  Subject: CN=QuoVadis Root CA 3, O=QuoVadis Limited, C=BM
  Issuer:  CN=QuoVadis Root CA 3, O=QuoVadis Limited, C=BM
  Algorithm: RSA; Serial number: 0x5c6
  Valid from Fri Nov 24 20:11:23 CET 2006 until Mon Nov 24 20:06:44 CET 2031

adding as trusted cert:
  Subject: CN=DigiCert Trusted Root G4, OU=www.digicert.com, O=DigiCert Inc, C=US
  Issuer:  CN=DigiCert Trusted Root G4, OU=www.digicert.com, O=DigiCert Inc, C=US
  Algorithm: RSA; Serial number: 0x59b1b579e8e2132e23907bda777755c
  Valid from Thu Aug 01 14:00:00 CEST 2013 until Fri Jan 15 13:00:00 CET 2038

adding as trusted cert:
  Subject: CN=TWCA Global Root CA, OU=Root CA, O=TAIWAN-CA, C=TW
  Issuer:  CN=TWCA Global Root CA, OU=Root CA, O=TAIWAN-CA, C=TW
  Algorithm: RSA; Serial number: 0xcbe
  Valid from Wed Jun 27 08:28:33 CEST 2012 until Tue Dec 31 16:59:59 CET 2030

adding as trusted cert:
  Subject: CN=Certum CA, O=Unizeto Sp. z o.o., C=PL
  Issuer:  CN=Certum CA, O=Unizeto Sp. z o.o., C=PL
  Algorithm: RSA; Serial number: 0x10020
  Valid from Tue Jun 11 12:46:39 CEST 2002 until Fri Jun 11 12:46:39 CEST 2027

adding as trusted cert:
  Subject: CN=GlobalSign, O=GlobalSign, OU=GlobalSign Root CA - R2
  Issuer:  CN=GlobalSign, O=GlobalSign, OU=GlobalSign Root CA - R2
  Algorithm: RSA; Serial number: 0x400000000010f8626e60d
  Valid from Fri Dec 15 09:00:00 CET 2006 until Wed Dec 15 09:00:00 CET 2021

adding as trusted cert:
  Subject: CN=Certum Trusted Network CA 2, OU=Certum Certification Authority, O=Unizeto Technologies S.A., C=PL
  Issuer:  CN=Certum Trusted Network CA 2, OU=Certum Certification Authority, O=Unizeto Technologies S.A., C=PL
  Algorithm: RSA; Serial number: 0x21d6d04a4f250fc93237fcaa5e128de9
  Valid from Thu Oct 06 10:39:56 CEST 2011 until Sat Oct 06 10:39:56 CEST 2046

adding as trusted cert:
  Subject: CN=Chambers of Commerce Root, OU=http://www.chambersign.org, O=AC Camerfirma SA CIF A82743287, C=EU
  Issuer:  CN=Chambers of Commerce Root, OU=http://www.chambersign.org, O=AC Camerfirma SA CIF A82743287, C=EU
  Algorithm: RSA; Serial number: 0x0
  Valid from Tue Sep 30 18:13:43 CEST 2003 until Wed Sep 30 18:13:44 CEST 2037

adding as trusted cert:
  Subject: CN=Entrust Root Certification Authority - G2, OU="(c) 2009 Entrust, Inc. - for authorized use only", OU=See www.entrust.net/legal-terms, O="Entrust, Inc.", C=US
  Issuer:  CN=Entrust Root Certification Authority - G2, OU="(c) 2009 Entrust, Inc. - for authorized use only", OU=See www.entrust.net/legal-terms, O="Entrust, Inc.", C=US
  Algorithm: RSA; Serial number: 0x4a538c28
  Valid from Tue Jul 07 19:25:54 CEST 2009 until Sat Dec 07 18:55:54 CET 2030

adding as trusted cert:
  Subject: CN=Hellenic Academic and Research Institutions RootCA 2015, O=Hellenic Academic and Research Institutions Cert. Authority, L=Athens, C=GR
  Issuer:  CN=Hellenic Academic and Research Institutions RootCA 2015, O=Hellenic Academic and Research Institutions Cert. Authority, L=Athens, C=GR
  Algorithm: RSA; Serial number: 0x0
  Valid from Tue Jul 07 12:11:21 CEST 2015 until Sat Jun 30 12:11:21 CEST 2040

adding as trusted cert:
  Subject: CN=Hongkong Post Root CA 1, O=Hongkong Post, C=HK
  Issuer:  CN=Hongkong Post Root CA 1, O=Hongkong Post, C=HK
  Algorithm: RSA; Serial number: 0x3e8
  Valid from Thu May 15 07:13:14 CEST 2003 until Mon May 15 06:52:29 CEST 2023

adding as trusted cert:
  Subject: CN=VeriSign Class 3 Public Primary Certification Authority - G5, OU="(c) 2006 VeriSign, Inc. - For authorized use only", OU=VeriSign Trust Network, O="VeriSign, Inc.", C=US
  Issuer:  CN=VeriSign Class 3 Public Primary Certification Authority - G5, OU="(c) 2006 VeriSign, Inc. - For authorized use only", OU=VeriSign Trust Network, O="VeriSign, Inc.", C=US
  Algorithm: RSA; Serial number: 0x18dad19e267de8bb4a2158cdcc6b3b4a
  Valid from Wed Nov 08 01:00:00 CET 2006 until Thu Jul 17 01:59:59 CEST 2036

adding as trusted cert:
  Subject: CN=GeoTrust Global CA, O=GeoTrust Inc., C=US
  Issuer:  CN=GeoTrust Global CA, O=GeoTrust Inc., C=US
  Algorithm: RSA; Serial number: 0x23456
  Valid from Tue May 21 06:00:00 CEST 2002 until Sat May 21 06:00:00 CEST 2022

adding as trusted cert:
  Subject: CN=GlobalSign, O=GlobalSign, OU=GlobalSign ECC Root CA - R4
  Issuer:  CN=GlobalSign, O=GlobalSign, OU=GlobalSign ECC Root CA - R4
  Algorithm: EC; Serial number: 0x2a38a41c960a04de42b228a50be8349802
  Valid from Tue Nov 13 01:00:00 CET 2012 until Tue Jan 19 04:14:07 CET 2038

adding as trusted cert:
  Subject: C=DE, O=Atos, CN=Atos TrustedRoot 2011
  Issuer:  C=DE, O=Atos, CN=Atos TrustedRoot 2011
  Algorithm: RSA; Serial number: 0x5c33cb622c5fb332
  Valid from Thu Jul 07 16:58:30 CEST 2011 until Wed Jan 01 00:59:59 CET 2031

adding as trusted cert:
  Subject: OU=certSIGN ROOT CA, O=certSIGN, C=RO
  Issuer:  OU=certSIGN ROOT CA, O=certSIGN, C=RO
  Algorithm: RSA; Serial number: 0x200605167002
  Valid from Tue Jul 04 19:20:04 CEST 2006 until Fri Jul 04 19:20:04 CEST 2031

adding as trusted cert:
  Subject: OU=Go Daddy Class 2 Certification Authority, O="The Go Daddy Group, Inc.", C=US
  Issuer:  OU=Go Daddy Class 2 Certification Authority, O="The Go Daddy Group, Inc.", C=US
  Algorithm: RSA; Serial number: 0x0
  Valid from Tue Jun 29 19:06:20 CEST 2004 until Thu Jun 29 19:06:20 CEST 2034

adding as trusted cert:
  Subject: CN=UTN-USERFirst-Client Authentication and Email, OU=http://www.usertrust.com, O=The USERTRUST Network, L=Salt Lake City, ST=UT, C=US
  Issuer:  CN=UTN-USERFirst-Client Authentication and Email, OU=http://www.usertrust.com, O=The USERTRUST Network, L=Salt Lake City, ST=UT, C=US
  Algorithm: RSA; Serial number: 0x44be0c8b500024b411d336252567c989
  Valid from Fri Jul 09 19:28:50 CEST 1999 until Tue Jul 09 19:36:58 CEST 2019

adding as trusted cert:
  Subject: CN=UTN-USERFirst-Hardware, OU=http://www.usertrust.com, O=The USERTRUST Network, L=Salt Lake City, ST=UT, C=US
  Issuer:  CN=UTN-USERFirst-Hardware, OU=http://www.usertrust.com, O=The USERTRUST Network, L=Salt Lake City, ST=UT, C=US
  Algorithm: RSA; Serial number: 0x44be0c8b500024b411d3362afe650afd
  Valid from Fri Jul 09 20:10:42 CEST 1999 until Tue Jul 09 20:19:22 CEST 2019

adding as trusted cert:
  Subject: CN=GeoTrust Primary Certification Authority, O=GeoTrust Inc., C=US
  Issuer:  CN=GeoTrust Primary Certification Authority, O=GeoTrust Inc., C=US
  Algorithm: RSA; Serial number: 0x18acb56afd69b6153a636cafdafac4a1
  Valid from Mon Nov 27 01:00:00 CET 2006 until Thu Jul 17 01:59:59 CEST 2036

adding as trusted cert:
  Subject: CN=GeoTrust Primary Certification Authority - G2, OU=(c) 2007 GeoTrust Inc. - For authorized use only, O=GeoTrust Inc., C=US
  Issuer:  CN=GeoTrust Primary Certification Authority - G2, OU=(c) 2007 GeoTrust Inc. - For authorized use only, O=GeoTrust Inc., C=US
  Algorithm: EC; Serial number: 0x3cb2f4480a00e2feeb243b5e603ec36b
  Valid from Mon Nov 05 01:00:00 CET 2007 until Tue Jan 19 00:59:59 CET 2038

adding as trusted cert:
  Subject: CN=Microsec e-Szigno Root CA, OU=e-Szigno CA, O=Microsec Ltd., L=Budapest, C=HU
  Issuer:  CN=Microsec e-Szigno Root CA, OU=e-Szigno CA, O=Microsec Ltd., L=Budapest, C=HU
  Algorithm: RSA; Serial number: 0xccb8e7bf4e291afda2dc66a51c2c0f11
  Valid from Wed Apr 06 14:28:44 CEST 2005 until Thu Apr 06 14:28:44 CEST 2017

adding as trusted cert:
  Subject: CN=Buypass Class 2 Root CA, O=Buypass AS-983163327, C=NO
  Issuer:  CN=Buypass Class 2 Root CA, O=Buypass AS-983163327, C=NO
  Algorithm: RSA; Serial number: 0x2
  Valid from Tue Oct 26 10:38:03 CEST 2010 until Fri Oct 26 10:38:03 CEST 2040

adding as trusted cert:
  Subject: OU=Security Communication RootCA2, O="SECOM Trust Systems CO.,LTD.", C=JP
  Issuer:  OU=Security Communication RootCA2, O="SECOM Trust Systems CO.,LTD.", C=JP
  Algorithm: RSA; Serial number: 0x0
  Valid from Fri May 29 07:00:39 CEST 2009 until Tue May 29 07:00:39 CEST 2029

adding as trusted cert:
  Subject: CN=S-TRUST Universal Root CA, OU=S-TRUST Certification Services, O=Deutscher Sparkassen Verlag GmbH, C=DE
  Issuer:  CN=S-TRUST Universal Root CA, OU=S-TRUST Certification Services, O=Deutscher Sparkassen Verlag GmbH, C=DE
  Algorithm: RSA; Serial number: 0x6056c54b23405b64d4ed25dad9d61e1e
  Valid from Tue Oct 22 02:00:00 CEST 2013 until Fri Oct 22 01:59:59 CEST 2038

adding as trusted cert:
  Subject: CN=Swisscom Root CA 1, OU=Digital Certificate Services, O=Swisscom, C=ch
  Issuer:  CN=Swisscom Root CA 1, OU=Digital Certificate Services, O=Swisscom, C=ch
  Algorithm: RSA; Serial number: 0x5c0b855c0be75941df57cc3f7f9da836
  Valid from Thu Aug 18 14:06:20 CEST 2005 until Tue Aug 19 00:06:20 CEST 2025

adding as trusted cert:
  Subject: CN=WellsSecure Public Root Certificate Authority, OU=Wells Fargo Bank NA, O=Wells Fargo WellsSecure, C=US
  Issuer:  CN=WellsSecure Public Root Certificate Authority, OU=Wells Fargo Bank NA, O=Wells Fargo WellsSecure, C=US
  Algorithm: RSA; Serial number: 0x1
  Valid from Thu Dec 13 18:07:54 CET 2007 until Wed Dec 14 01:07:54 CET 2022

adding as trusted cert:
  Subject: CN=Hellenic Academic and Research Institutions RootCA 2011, O=Hellenic Academic and Research Institutions Cert. Authority, C=GR
  Issuer:  CN=Hellenic Academic and Research Institutions RootCA 2011, O=Hellenic Academic and Research Institutions Cert. Authority, C=GR
  Algorithm: RSA; Serial number: 0x0
  Valid from Tue Dec 06 14:49:52 CET 2011 until Mon Dec 01 14:49:52 CET 2031

adding as trusted cert:
  Subject: CN=DST Root CA X3, O=Digital Signature Trust Co.
  Issuer:  CN=DST Root CA X3, O=Digital Signature Trust Co.
  Algorithm: RSA; Serial number: 0x44afb080d6a327ba893039862ef8406b
  Valid from Sat Sep 30 23:12:19 CEST 2000 until Thu Sep 30 16:01:15 CEST 2021

adding as trusted cert:
  Subject: CN=CA WoSign ECC Root, O=WoSign CA Limited, C=CN
  Issuer:  CN=CA WoSign ECC Root, O=WoSign CA Limited, C=CN
  Algorithm: EC; Serial number: 0x684a5870806bf08f02faf6dee8b09090
  Valid from Sat Nov 08 01:58:58 CET 2014 until Tue Nov 08 01:58:58 CET 2044

adding as trusted cert:
  Subject: CN=OpenTrust Root CA G1, O=OpenTrust, C=FR
  Issuer:  CN=OpenTrust Root CA G1, O=OpenTrust, C=FR
  Algorithm: RSA; Serial number: 0x1120b39055397d7f366d64c2a79f6b638e67
  Valid from Mon May 26 10:45:50 CEST 2014 until Fri Jan 15 01:00:00 CET 2038

adding as trusted cert:
  Subject: O=TÜRKTRUST Bilgi İletişim ve Bilişim Güvenliği Hizmetleri A.Ş. (c) Aralık 2007, L=Ankara, C=TR, CN=TÜRKTRUST Elektronik Sertifika Hizmet Sağlayıcısı
  Issuer:  O=TÜRKTRUST Bilgi İletişim ve Bilişim Güvenliği Hizmetleri A.Ş. (c) Aralık 2007, L=Ankara, C=TR, CN=TÜRKTRUST Elektronik Sertifika Hizmet Sağlayıcısı
  Algorithm: RSA; Serial number: 0x1
  Valid from Tue Dec 25 19:37:19 CET 2007 until Fri Dec 22 19:37:19 CET 2017

adding as trusted cert:
  Subject: CN=Actalis Authentication Root CA, O=Actalis S.p.A./03358520967, L=Milan, C=IT
  Issuer:  CN=Actalis Authentication Root CA, O=Actalis S.p.A./03358520967, L=Milan, C=IT
  Algorithm: RSA; Serial number: 0x570a119742c4e3cc
  Valid from Thu Sep 22 13:22:02 CEST 2011 until Sun Sep 22 13:22:02 CEST 2030

adding as trusted cert:
  Subject: CN=QuoVadis Root CA 1 G3, O=QuoVadis Limited, C=BM
  Issuer:  CN=QuoVadis Root CA 1 G3, O=QuoVadis Limited, C=BM
  Algorithm: RSA; Serial number: 0x78585f2ead2c194be3370735341328b596d46593
  Valid from Thu Jan 12 18:27:44 CET 2012 until Sun Jan 12 18:27:44 CET 2042

adding as trusted cert:
  Subject: CN=Certinomis - Root CA, OU=0002 433998903, O=Certinomis, C=FR
  Issuer:  CN=Certinomis - Root CA, OU=0002 433998903, O=Certinomis, C=FR
  Algorithm: RSA; Serial number: 0x1
  Valid from Mon Oct 21 11:17:18 CEST 2013 until Fri Oct 21 11:17:18 CEST 2033

adding as trusted cert:
  Subject: CN=Swisscom Root CA 2, OU=Digital Certificate Services, O=Swisscom, C=ch
  Issuer:  CN=Swisscom Root CA 2, OU=Digital Certificate Services, O=Swisscom, C=ch
  Algorithm: RSA; Serial number: 0x1e9e28e848f2e5efc37c4a1e5a1867b6
  Valid from Fri Jun 24 10:38:14 CEST 2011 until Wed Jun 25 09:38:14 CEST 2031

adding as trusted cert:
  Subject: CN=StartCom Certification Authority G2, O=StartCom Ltd., C=IL
  Issuer:  CN=StartCom Certification Authority G2, O=StartCom Ltd., C=IL
  Algorithm: RSA; Serial number: 0x3b
  Valid from Fri Jan 01 02:00:01 CET 2010 until Sun Jan 01 00:59:01 CET 2040

adding as trusted cert:
  Subject: CN=Cybertrust Global Root, O="Cybertrust, Inc"
  Issuer:  CN=Cybertrust Global Root, O="Cybertrust, Inc"
  Algorithm: RSA; Serial number: 0x400000000010f85aa2d48
  Valid from Fri Dec 15 09:00:00 CET 2006 until Wed Dec 15 09:00:00 CET 2021

adding as trusted cert:
  Subject: CN=TC TrustCenter Class 3 CA II, OU=TC TrustCenter Class 3 CA, O=TC TrustCenter GmbH, C=DE
  Issuer:  CN=TC TrustCenter Class 3 CA II, OU=TC TrustCenter Class 3 CA, O=TC TrustCenter GmbH, C=DE
  Algorithm: RSA; Serial number: 0x4a4700010002e5a05dd63f0051bf
  Valid from Thu Jan 12 15:41:57 CET 2006 until Wed Dec 31 23:59:59 CET 2025

adding as trusted cert:
  Subject: CN=OpenTrust Root CA G2, O=OpenTrust, C=FR
  Issuer:  CN=OpenTrust Root CA G2, O=OpenTrust, C=FR
  Algorithm: RSA; Serial number: 0x1120a1691bbfbdb9bd52968f23e848bf2611
  Valid from Mon May 26 02:00:00 CEST 2014 until Fri Jan 15 01:00:00 CET 2038

adding as trusted cert:
  Subject: CN=StartCom Certification Authority, OU=Secure Digital Certificate Signing, O=StartCom Ltd., C=IL
  Issuer:  CN=StartCom Certification Authority, OU=Secure Digital Certificate Signing, O=StartCom Ltd., C=IL
  Algorithm: RSA; Serial number: 0x2d
  Valid from Sun Sep 17 21:46:37 CEST 2006 until Wed Sep 17 21:46:36 CEST 2036

adding as trusted cert:
  Subject: CN=SwissSign Platinum CA - G2, O=SwissSign AG, C=CH
  Issuer:  CN=SwissSign Platinum CA - G2, O=SwissSign AG, C=CH
  Algorithm: RSA; Serial number: 0x4eb200670c035d4f
  Valid from Wed Oct 25 10:36:00 CEST 2006 until Sat Oct 25 10:36:00 CEST 2036

adding as trusted cert:
  Subject: CN=IdenTrust Public Sector Root CA 1, O=IdenTrust, C=US
  Issuer:  CN=IdenTrust Public Sector Root CA 1, O=IdenTrust, C=US
  Algorithm: RSA; Serial number: 0xa0142800000014523cf467c00000002
  Valid from Thu Jan 16 18:53:32 CET 2014 until Mon Jan 16 18:53:32 CET 2034

adding as trusted cert:
  Subject: CN=AddTrust Public CA Root, OU=AddTrust TTP Network, O=AddTrust AB, C=SE
  Issuer:  CN=AddTrust Public CA Root, OU=AddTrust TTP Network, O=AddTrust AB, C=SE
  Algorithm: RSA; Serial number: 0x1
  Valid from Tue May 30 12:41:50 CEST 2000 until Sat May 30 12:41:50 CEST 2020

adding as trusted cert:
  Subject: CN=thawte Primary Root CA, OU="(c) 2006 thawte, Inc. - For authorized use only", OU=Certification Services Division, O="thawte, Inc.", C=US
  Issuer:  CN=thawte Primary Root CA, OU="(c) 2006 thawte, Inc. - For authorized use only", OU=Certification Services Division, O="thawte, Inc.", C=US
  Algorithm: RSA; Serial number: 0x344ed55720d5edec49f42fce37db2b6d
  Valid from Fri Nov 17 01:00:00 CET 2006 until Thu Jul 17 01:59:59 CEST 2036

adding as trusted cert:
  Subject: CN=DST ACES CA X6, OU=DST ACES, O=Digital Signature Trust, C=US
  Issuer:  CN=DST ACES CA X6, OU=DST ACES, O=Digital Signature Trust, C=US
  Algorithm: RSA; Serial number: 0xd5e990ad69db778ecd807563b8615d9
  Valid from Thu Nov 20 22:19:58 CET 2003 until Mon Nov 20 22:19:58 CET 2017

adding as trusted cert:
  Subject: CN=Entrust Root Certification Authority, OU="(c) 2006 Entrust, Inc.", OU=www.entrust.net/CPS is incorporated by reference, O="Entrust, Inc.", C=US
  Issuer:  CN=Entrust Root Certification Authority, OU="(c) 2006 Entrust, Inc.", OU=www.entrust.net/CPS is incorporated by reference, O="Entrust, Inc.", C=US
  Algorithm: RSA; Serial number: 0x456b5054
  Valid from Mon Nov 27 21:23:42 CET 2006 until Fri Nov 27 21:53:42 CET 2026

adding as trusted cert:
  Subject: CN=Certification Authority of WoSign G2, O=WoSign CA Limited, C=CN
  Issuer:  CN=Certification Authority of WoSign G2, O=WoSign CA Limited, C=CN
  Algorithm: RSA; Serial number: 0x6b25da8a889d7cbc0f05b3b17a614544
  Valid from Sat Nov 08 01:58:58 CET 2014 until Tue Nov 08 01:58:58 CET 2044

adding as trusted cert:
  Subject: CN=PSCProcert, C=VE, O=Sistema Nacional de Certificacion Electronica, OU=Proveedor de Certificados PROCERT, ST=Miranda, L=Chacao, EMAILADDRESS=contacto@procert.net.ve
  Issuer:  EMAILADDRESS=acraiz@suscerte.gob.ve, OU=Superintendencia de Servicios de Certificacion Electronica, O=Sistema Nacional de Certificacion Electronica, ST=Distrito Capital, L=Caracas, C=VE, CN=Autoridad de Certificacion Raiz del Estado Venezolano
  Algorithm: RSA; Serial number: 0xb
  Valid from Tue Dec 28 17:51:00 CET 2010 until Sat Dec 26 00:59:59 CET 2020

adding as trusted cert:
  Subject: OU=ApplicationCA, O=Japanese Government, C=JP
  Issuer:  OU=ApplicationCA, O=Japanese Government, C=JP
  Algorithm: RSA; Serial number: 0x31
  Valid from Wed Dec 12 16:00:00 CET 2007 until Tue Dec 12 16:00:00 CET 2017

adding as trusted cert:
  Subject: CN=OISTE WISeKey Global Root GB CA, OU=OISTE Foundation Endorsed, O=WISeKey, C=CH
  Issuer:  CN=OISTE WISeKey Global Root GB CA, OU=OISTE Foundation Endorsed, O=WISeKey, C=CH
  Algorithm: RSA; Serial number: 0x76b1205274f0858746b3f8231af6c2c0
  Valid from Mon Dec 01 16:00:32 CET 2014 until Thu Dec 01 16:10:31 CET 2039

adding as trusted cert:
  Subject: CN=Staat der Nederlanden Root CA - G3, O=Staat der Nederlanden, C=NL
  Issuer:  CN=Staat der Nederlanden Root CA - G3, O=Staat der Nederlanden, C=NL
  Algorithm: RSA; Serial number: 0x98a239
  Valid from Thu Nov 14 12:28:42 CET 2013 until Tue Nov 14 00:00:00 CET 2028

adding as trusted cert:
  Subject: CN=SwissSign Silver CA - G2, O=SwissSign AG, C=CH
  Issuer:  CN=SwissSign Silver CA - G2, O=SwissSign AG, C=CH
  Algorithm: RSA; Serial number: 0x4f1bd42f54bb2f4b
  Valid from Wed Oct 25 10:32:46 CEST 2006 until Sat Oct 25 10:32:46 CEST 2036

adding as trusted cert:
  Subject: CN=Izenpe.com, O=IZENPE S.A., C=ES
  Issuer:  CN=Izenpe.com, O=IZENPE S.A., C=ES
  Algorithm: RSA; Serial number: 0xb0b75a16485fbfe1cbf58bd719e67d
  Valid from Thu Dec 13 14:08:28 CET 2007 until Sun Dec 13 09:27:25 CET 2037

adding as trusted cert:
  Subject: OU=Security Communication EV RootCA1, O="SECOM Trust Systems CO.,LTD.", C=JP
  Issuer:  OU=Security Communication EV RootCA1, O="SECOM Trust Systems CO.,LTD.", C=JP
  Algorithm: RSA; Serial number: 0x0
  Valid from Wed Jun 06 04:12:32 CEST 2007 until Sat Jun 06 04:12:32 CEST 2037

adding as trusted cert:
  Subject: CN=DigiCert Assured ID Root G2, OU=www.digicert.com, O=DigiCert Inc, C=US
  Issuer:  CN=DigiCert Assured ID Root G2, OU=www.digicert.com, O=DigiCert Inc, C=US
  Algorithm: RSA; Serial number: 0xb931c3ad63967ea6723bfc3af9af44b
  Valid from Thu Aug 01 14:00:00 CEST 2013 until Fri Jan 15 13:00:00 CET 2038

adding as trusted cert:
  Subject: CN=SwissSign Gold CA - G2, O=SwissSign AG, C=CH
  Issuer:  CN=SwissSign Gold CA - G2, O=SwissSign AG, C=CH
  Algorithm: RSA; Serial number: 0xbb401c43f55e4fb0
  Valid from Wed Oct 25 10:30:35 CEST 2006 until Sat Oct 25 10:30:35 CEST 2036

adding as trusted cert:
  Subject: CN=Hellenic Academic and Research Institutions ECC RootCA 2015, O=Hellenic Academic and Research Institutions Cert. Authority, L=Athens, C=GR
  Issuer:  CN=Hellenic Academic and Research Institutions ECC RootCA 2015, O=Hellenic Academic and Research Institutions Cert. Authority, L=Athens, C=GR
  Algorithm: EC; Serial number: 0x0
  Valid from Tue Jul 07 12:37:12 CEST 2015 until Sat Jun 30 12:37:12 CEST 2040

adding as trusted cert:
  Subject: CN=Swisscom Root EV CA 2, OU=Digital Certificate Services, O=Swisscom, C=ch
  Issuer:  CN=Swisscom Root EV CA 2, OU=Digital Certificate Services, O=Swisscom, C=ch
  Algorithm: RSA; Serial number: 0xf2fa64e27463d38dfd101d041f76ca58
  Valid from Fri Jun 24 11:45:08 CEST 2011 until Wed Jun 25 10:45:08 CEST 2031

adding as trusted cert:
  Subject: CN=Global Chambersign Root, OU=http://www.chambersign.org, O=AC Camerfirma SA CIF A82743287, C=EU
  Issuer:  CN=Global Chambersign Root, OU=http://www.chambersign.org, O=AC Camerfirma SA CIF A82743287, C=EU
  Algorithm: RSA; Serial number: 0x0
  Valid from Tue Sep 30 18:14:18 CEST 2003 until Wed Sep 30 18:14:18 CEST 2037

adding as trusted cert:
  Subject: EMAILADDRESS=pki@sk.ee, CN=EE Certification Centre Root CA, O=AS Sertifitseerimiskeskus, C=EE
  Issuer:  EMAILADDRESS=pki@sk.ee, CN=EE Certification Centre Root CA, O=AS Sertifitseerimiskeskus, C=EE
  Algorithm: RSA; Serial number: 0x5480f9a073ed3f004cca89d8e371e64a
  Valid from Sat Oct 30 12:10:30 CEST 2010 until Wed Dec 18 00:59:59 CET 2030

adding as trusted cert:
  Subject: CN=Secure Certificate Services, O=Comodo CA Limited, L=Salford, ST=Greater Manchester, C=GB
  Issuer:  CN=Secure Certificate Services, O=Comodo CA Limited, L=Salford, ST=Greater Manchester, C=GB
  Algorithm: RSA; Serial number: 0x1
  Valid from Thu Jan 01 01:00:00 CET 2004 until Mon Jan 01 00:59:59 CET 2029

adding as trusted cert:
  Subject: CN=CA Disig Root R1, O=Disig a.s., L=Bratislava, C=SK
  Issuer:  CN=CA Disig Root R1, O=Disig a.s., L=Bratislava, C=SK
  Algorithm: RSA; Serial number: 0xc3039aee50906e28
  Valid from Thu Jul 19 11:06:56 CEST 2012 until Sat Jul 19 11:06:56 CEST 2042

adding as trusted cert:
  Subject: EMAILADDRESS=info@e-szigno.hu, CN=Microsec e-Szigno Root CA 2009, O=Microsec Ltd., L=Budapest, C=HU
  Issuer:  EMAILADDRESS=info@e-szigno.hu, CN=Microsec e-Szigno Root CA 2009, O=Microsec Ltd., L=Budapest, C=HU
  Algorithm: RSA; Serial number: 0xc27e43044e473f19
  Valid from Tue Jun 16 13:30:18 CEST 2009 until Sun Dec 30 12:30:18 CET 2029

adding as trusted cert:
  Subject: CN=Starfield Services Root Certificate Authority - G2, O="Starfield Technologies, Inc.", L=Scottsdale, ST=Arizona, C=US
  Issuer:  CN=Starfield Services Root Certificate Authority - G2, O="Starfield Technologies, Inc.", L=Scottsdale, ST=Arizona, C=US
  Algorithm: RSA; Serial number: 0x0
  Valid from Tue Sep 01 02:00:00 CEST 2009 until Fri Jan 01 00:59:59 CET 2038

adding as trusted cert:
  Subject: OU=Class 3 Public Primary Certification Authority, O="VeriSign, Inc.", C=US
  Issuer:  OU=Class 3 Public Primary Certification Authority, O="VeriSign, Inc.", C=US
  Algorithm: RSA; Serial number: 0x70bae41d10d92934b638ca7b03ccbabf
  Valid from Mon Jan 29 01:00:00 CET 1996 until Wed Aug 02 01:59:59 CEST 2028

adding as trusted cert:
  Subject: CN=Certification Authority of WoSign, O=WoSign CA Limited, C=CN
  Issuer:  CN=Certification Authority of WoSign, O=WoSign CA Limited, C=CN
  Algorithm: RSA; Serial number: 0x5e68d61171946350560068f33ec9c591
  Valid from Sat Aug 08 03:00:01 CEST 2009 until Mon Aug 08 03:00:01 CEST 2039

adding as trusted cert:
  Subject: CN=DigiCert High Assurance EV Root CA, OU=www.digicert.com, O=DigiCert Inc, C=US
  Issuer:  CN=DigiCert High Assurance EV Root CA, OU=www.digicert.com, O=DigiCert Inc, C=US
  Algorithm: RSA; Serial number: 0x2ac5c266a0b409b8f0b79f2ae462577
  Valid from Fri Nov 10 01:00:00 CET 2006 until Mon Nov 10 01:00:00 CET 2031

adding as trusted cert:
  Subject: CN=T-TeleSec GlobalRoot Class 3, OU=T-Systems Trust Center, O=T-Systems Enterprise Services GmbH, C=DE
  Issuer:  CN=T-TeleSec GlobalRoot Class 3, OU=T-Systems Trust Center, O=T-Systems Enterprise Services GmbH, C=DE
  Algorithm: RSA; Serial number: 0x1
  Valid from Wed Oct 01 12:29:56 CEST 2008 until Sun Oct 02 01:59:59 CEST 2033

adding as trusted cert:
  Subject: CN=Staat der Nederlanden EV Root CA, O=Staat der Nederlanden, C=NL
  Issuer:  CN=Staat der Nederlanden EV Root CA, O=Staat der Nederlanden, C=NL
  Algorithm: RSA; Serial number: 0x98968d
  Valid from Wed Dec 08 12:19:29 CET 2010 until Thu Dec 08 12:10:28 CET 2022

adding as trusted cert:
  Subject: CN=USERTrust RSA Certification Authority, O=The USERTRUST Network, L=Jersey City, ST=New Jersey, C=US
  Issuer:  CN=USERTrust RSA Certification Authority, O=The USERTRUST Network, L=Jersey City, ST=New Jersey, C=US
  Algorithm: RSA; Serial number: 0x1fd6d30fca3ca51a81bbc640e35032d
  Valid from Mon Feb 01 01:00:00 CET 2010 until Tue Jan 19 00:59:59 CET 2038

adding as trusted cert:
  Subject: CN=Entrust Root Certification Authority - EC1, OU="(c) 2012 Entrust, Inc. - for authorized use only", OU=See www.entrust.net/legal-terms, O="Entrust, Inc.", C=US
  Issuer:  CN=Entrust Root Certification Authority - EC1, OU="(c) 2012 Entrust, Inc. - for authorized use only", OU=See www.entrust.net/legal-terms, O="Entrust, Inc.", C=US
  Algorithm: EC; Serial number: 0xa68b79290000000050d091f9
  Valid from Tue Dec 18 16:25:36 CET 2012 until Fri Dec 18 16:55:36 CET 2037

adding as trusted cert:
  Subject: CN=thawte Primary Root CA - G2, OU="(c) 2007 thawte, Inc. - For authorized use only", O="thawte, Inc.", C=US
  Issuer:  CN=thawte Primary Root CA - G2, OU="(c) 2007 thawte, Inc. - For authorized use only", O="thawte, Inc.", C=US
  Algorithm: EC; Serial number: 0x35fc265cd9844fc93d263d579baed756
  Valid from Mon Nov 05 01:00:00 CET 2007 until Tue Jan 19 00:59:59 CET 2038

adding as trusted cert:
  Subject: CN=D-TRUST Root Class 3 CA 2 2009, O=D-Trust GmbH, C=DE
  Issuer:  CN=D-TRUST Root Class 3 CA 2 2009, O=D-Trust GmbH, C=DE
  Algorithm: RSA; Serial number: 0x983f3
  Valid from Thu Nov 05 09:35:58 CET 2009 until Mon Nov 05 09:35:58 CET 2029

adding as trusted cert:
  Subject: CN=Deutsche Telekom Root CA 2, OU=T-TeleSec Trust Center, O=Deutsche Telekom AG, C=DE
  Issuer:  CN=Deutsche Telekom Root CA 2, OU=T-TeleSec Trust Center, O=Deutsche Telekom AG, C=DE
  Algorithm: RSA; Serial number: 0x26
  Valid from Fri Jul 09 14:11:00 CEST 1999 until Wed Jul 10 01:59:00 CEST 2019

adding as trusted cert:
  Subject: CN=SZAFIR ROOT CA2, O=Krajowa Izba Rozliczeniowa S.A., C=PL
  Issuer:  CN=SZAFIR ROOT CA2, O=Krajowa Izba Rozliczeniowa S.A., C=PL
  Algorithm: RSA; Serial number: 0x3e8a5d07ec55d232d5b7e3b65f01eb2ddce4d6e4
  Valid from Mon Oct 19 09:43:30 CEST 2015 until Fri Oct 19 09:43:30 CEST 2035

adding as trusted cert:
  Subject: CN=T-TeleSec GlobalRoot Class 2, OU=T-Systems Trust Center, O=T-Systems Enterprise Services GmbH, C=DE
  Issuer:  CN=T-TeleSec GlobalRoot Class 2, OU=T-Systems Trust Center, O=T-Systems Enterprise Services GmbH, C=DE
  Algorithm: RSA; Serial number: 0x1
  Valid from Wed Oct 01 12:40:14 CEST 2008 until Sun Oct 02 01:59:59 CEST 2033

adding as trusted cert:
  Subject: CN=EC-ACC, OU=Jerarquia Entitats de Certificacio Catalanes, OU=Vegeu https://www.catcert.net/verarrel (c)03, OU=Serveis Publics de Certificacio, O=Agencia Catalana de Certificacio (NIF Q-0801176-I), C=ES
  Issuer:  CN=EC-ACC, OU=Jerarquia Entitats de Certificacio Catalanes, OU=Vegeu https://www.catcert.net/verarrel (c)03, OU=Serveis Publics de Certificacio, O=Agencia Catalana de Certificacio (NIF Q-0801176-I), C=ES
  Algorithm: RSA; Serial number: 0x-11d4c2142bde21eb579d53fb0c223bff
  Valid from Wed Jan 08 00:00:00 CET 2003 until Tue Jan 07 23:59:59 CET 2031

adding as trusted cert:
  Subject: CN=VeriSign Class 3 Public Primary Certification Authority - G3, OU="(c) 1999 VeriSign, Inc. - For authorized use only", OU=VeriSign Trust Network, O="VeriSign, Inc.", C=US
  Issuer:  CN=VeriSign Class 3 Public Primary Certification Authority - G3, OU="(c) 1999 VeriSign, Inc. - For authorized use only", OU=VeriSign Trust Network, O="VeriSign, Inc.", C=US
  Algorithm: RSA; Serial number: 0x9b7e0649a33e62b9d5ee90487129ef57
  Valid from Fri Oct 01 02:00:00 CEST 1999 until Thu Jul 17 01:59:59 CEST 2036

adding as trusted cert:
  Subject: CN=AddTrust Class 1 CA Root, OU=AddTrust TTP Network, O=AddTrust AB, C=SE
  Issuer:  CN=AddTrust Class 1 CA Root, OU=AddTrust TTP Network, O=AddTrust AB, C=SE
  Algorithm: RSA; Serial number: 0x1
  Valid from Tue May 30 12:38:31 CEST 2000 until Sat May 30 12:38:31 CEST 2020

adding as trusted cert:
  Subject: CN=Visa eCommerce Root, OU=Visa International Service Association, O=VISA, C=US
  Issuer:  CN=Visa eCommerce Root, OU=Visa International Service Association, O=VISA, C=US
  Algorithm: RSA; Serial number: 0x1386354d1d3f06f2c1f96505d5901c62
  Valid from Wed Jun 26 04:18:36 CEST 2002 until Fri Jun 24 02:16:12 CEST 2022

adding as trusted cert:
  Subject: CN=Network Solutions Certificate Authority, O=Network Solutions L.L.C., C=US
  Issuer:  CN=Network Solutions Certificate Authority, O=Network Solutions L.L.C., C=US
  Algorithm: RSA; Serial number: 0x57cb336fc25c16e6471617e3903168e0
  Valid from Fri Dec 01 01:00:00 CET 2006 until Tue Jan 01 00:59:59 CET 2030

adding as trusted cert:
  Subject: CN=CNNIC ROOT, O=CNNIC, C=CN
  Issuer:  CN=CNNIC ROOT, O=CNNIC, C=CN
  Algorithm: RSA; Serial number: 0x49330001
  Valid from Mon Apr 16 09:09:14 CEST 2007 until Fri Apr 16 09:09:14 CEST 2027

adding as trusted cert:
  Subject: CN=Certplus Root CA G2, O=Certplus, C=FR
  Issuer:  CN=Certplus Root CA G2, O=Certplus, C=FR
  Algorithm: EC; Serial number: 0x1120d991ceaea3e8c5e7ffe902afcf73bc55
  Valid from Mon May 26 02:00:00 CEST 2014 until Fri Jan 15 01:00:00 CET 2038

adding as trusted cert:
  Subject: CN=AAA Certificate Services, O=Comodo CA Limited, L=Salford, ST=Greater Manchester, C=GB
  Issuer:  CN=AAA Certificate Services, O=Comodo CA Limited, L=Salford, ST=Greater Manchester, C=GB
  Algorithm: RSA; Serial number: 0x1
  Valid from Thu Jan 01 01:00:00 CET 2004 until Mon Jan 01 00:59:59 CET 2029

adding as trusted cert:
  Subject: CN=VeriSign Class 2 Public Primary Certification Authority - G3, OU="(c) 1999 VeriSign, Inc. - For authorized use only", OU=VeriSign Trust Network, O="VeriSign, Inc.", C=US
  Issuer:  CN=VeriSign Class 2 Public Primary Certification Authority - G3, OU="(c) 1999 VeriSign, Inc. - For authorized use only", OU=VeriSign Trust Network, O="VeriSign, Inc.", C=US
  Algorithm: RSA; Serial number: 0x6170cb498c5f984529e7b0a6d9505b7a
  Valid from Fri Oct 01 02:00:00 CEST 1999 until Thu Jul 17 01:59:59 CEST 2036

adding as trusted cert:
  Subject: CN=Staat der Nederlanden Root CA - G2, O=Staat der Nederlanden, C=NL
  Issuer:  CN=Staat der Nederlanden Root CA - G2, O=Staat der Nederlanden, C=NL
  Algorithm: RSA; Serial number: 0x98968c
  Valid from Wed Mar 26 12:18:17 CET 2008 until Wed Mar 25 12:03:10 CET 2020

adding as trusted cert:
  Subject: CN=TÜRKTRUST Elektronik Sertifika Hizmet Sağlayıcısı H6, O=TÜRKTRUST Bilgi İletişim ve Bilişim Güvenliği Hizmetleri A.Ş., L=Ankara, C=TR
  Issuer:  CN=TÜRKTRUST Elektronik Sertifika Hizmet Sağlayıcısı H6, O=TÜRKTRUST Bilgi İletişim ve Bilişim Güvenliği Hizmetleri A.Ş., L=Ankara, C=TR
  Algorithm: RSA; Serial number: 0x7da1f265ec8a
  Valid from Wed Dec 18 10:04:10 CET 2013 until Sat Dec 16 10:04:10 CET 2023

adding as trusted cert:
  Subject: CN=COMODO RSA Certification Authority, O=COMODO CA Limited, L=Salford, ST=Greater Manchester, C=GB
  Issuer:  CN=COMODO RSA Certification Authority, O=COMODO CA Limited, L=Salford, ST=Greater Manchester, C=GB
  Algorithm: RSA; Serial number: 0x4caaf9cadb636fe01ff74ed85b03869d
  Valid from Tue Jan 19 01:00:00 CET 2010 until Tue Jan 19 00:59:59 CET 2038

adding as trusted cert:
  Subject: CN=Certigna, O=Dhimyotis, C=FR
  Issuer:  CN=Certigna, O=Dhimyotis, C=FR
  Algorithm: RSA; Serial number: 0xfedce3010fc948ff
  Valid from Fri Jun 29 17:13:05 CEST 2007 until Tue Jun 29 17:13:05 CEST 2027

adding as trusted cert:
  Subject: CN=CA 沃通根证书, O=WoSign CA Limited, C=CN
  Issuer:  CN=CA 沃通根证书, O=WoSign CA Limited, C=CN
  Algorithm: RSA; Serial number: 0x50706bcdd813fc1b4e3b3372d211488d
  Valid from Sat Aug 08 03:00:01 CEST 2009 until Mon Aug 08 03:00:01 CEST 2039

adding as trusted cert:
  Subject: CN=CA Disig Root R2, O=Disig a.s., L=Bratislava, C=SK
  Issuer:  CN=CA Disig Root R2, O=Disig a.s., L=Bratislava, C=SK
  Algorithm: RSA; Serial number: 0x92b888dbb08ac163
  Valid from Thu Jul 19 11:15:30 CEST 2012 until Sat Jul 19 11:15:30 CEST 2042

adding as trusted cert:
  Subject: CN=D-TRUST Root Class 3 CA 2 EV 2009, O=D-Trust GmbH, C=DE
  Issuer:  CN=D-TRUST Root Class 3 CA 2 EV 2009, O=D-Trust GmbH, C=DE
  Algorithm: RSA; Serial number: 0x983f4
  Valid from Thu Nov 05 09:50:46 CET 2009 until Mon Nov 05 09:50:46 CET 2029

adding as trusted cert:
  Subject: CN=DigiCert Global Root G2, OU=www.digicert.com, O=DigiCert Inc, C=US
  Issuer:  CN=DigiCert Global Root G2, OU=www.digicert.com, O=DigiCert Inc, C=US
  Algorithm: RSA; Serial number: 0x33af1e6a711a9a0bb2864b11d09fae5
  Valid from Thu Aug 01 14:00:00 CEST 2013 until Fri Jan 15 13:00:00 CET 2038

adding as trusted cert:
  Subject: CN=SecureTrust CA, O=SecureTrust Corporation, C=US
  Issuer:  CN=SecureTrust CA, O=SecureTrust Corporation, C=US
  Algorithm: RSA; Serial number: 0xcf08e5c0816a5ad427ff0eb271859d0
  Valid from Tue Nov 07 20:31:18 CET 2006 until Mon Dec 31 20:40:55 CET 2029

adding as trusted cert:
  Subject: CN=TWCA Root Certification Authority, OU=Root CA, O=TAIWAN-CA, C=TW
  Issuer:  CN=TWCA Root Certification Authority, OU=Root CA, O=TAIWAN-CA, C=TW
  Algorithm: RSA; Serial number: 0x1
  Valid from Thu Aug 28 09:24:33 CEST 2008 until Tue Dec 31 16:59:59 CET 2030

adding as trusted cert:
  Subject: CN=OISTE WISeKey Global Root GA CA, OU=OISTE Foundation Endorsed, OU=Copyright (c) 2005, O=WISeKey, C=CH
  Issuer:  CN=OISTE WISeKey Global Root GA CA, OU=OISTE Foundation Endorsed, OU=Copyright (c) 2005, O=WISeKey, C=CH
  Algorithm: RSA; Serial number: 0x413d72c7f46b1f81437df1d22854df9a
  Valid from Sun Dec 11 17:03:44 CET 2005 until Fri Dec 11 17:09:51 CET 2037

adding as trusted cert:
  Subject: CN=Go Daddy Root Certificate Authority - G2, O="GoDaddy.com, Inc.", L=Scottsdale, ST=Arizona, C=US
  Issuer:  CN=Go Daddy Root Certificate Authority - G2, O="GoDaddy.com, Inc.", L=Scottsdale, ST=Arizona, C=US
  Algorithm: RSA; Serial number: 0x0
  Valid from Tue Sep 01 02:00:00 CEST 2009 until Fri Jan 01 00:59:59 CET 2038

adding as trusted cert:
  Subject: CN=Autoridad de Certificacion Firmaprofesional CIF A62634068, C=ES
  Issuer:  CN=Autoridad de Certificacion Firmaprofesional CIF A62634068, C=ES
  Algorithm: RSA; Serial number: 0x53ec3beefbb2485f
  Valid from Wed May 20 10:38:15 CEST 2009 until Tue Dec 31 09:38:15 CET 2030

adding as trusted cert:
  Subject: C=ES, O=EDICOM, OU=PKI, CN=ACEDICOM Root
  Issuer:  C=ES, O=EDICOM, OU=PKI, CN=ACEDICOM Root
  Algorithm: RSA; Serial number: 0x618dc7863b018205
  Valid from Fri Apr 18 18:24:22 CEST 2008 until Thu Apr 13 18:24:22 CEST 2028

adding as trusted cert:
  Subject: CN=VeriSign Universal Root Certification Authority, OU="(c) 2008 VeriSign, Inc. - For authorized use only", OU=VeriSign Trust Network, O="VeriSign, Inc.", C=US
  Issuer:  CN=VeriSign Universal Root Certification Authority, OU="(c) 2008 VeriSign, Inc. - For authorized use only", OU=VeriSign Trust Network, O="VeriSign, Inc.", C=US
  Algorithm: RSA; Serial number: 0x401ac46421b31321030ebbe4121ac51d
  Valid from Wed Apr 02 02:00:00 CEST 2008 until Wed Dec 02 00:59:59 CET 2037

adding as trusted cert:
  Subject: CN=Certum Trusted Network CA, OU=Certum Certification Authority, O=Unizeto Technologies S.A., C=PL
  Issuer:  CN=Certum Trusted Network CA, OU=Certum Certification Authority, O=Unizeto Technologies S.A., C=PL
  Algorithm: RSA; Serial number: 0x444c0
  Valid from Wed Oct 22 14:07:37 CEST 2008 until Mon Dec 31 13:07:37 CET 2029

adding as trusted cert:
  Subject: CN=OpenTrust Root CA G3, O=OpenTrust, C=FR
  Issuer:  CN=OpenTrust Root CA G3, O=OpenTrust, C=FR
  Algorithm: EC; Serial number: 0x1120e6f84cfc24b0be0540acda831b34603f
  Valid from Mon May 26 02:00:00 CEST 2014 until Fri Jan 15 01:00:00 CET 2038

adding as trusted cert:
  Subject: CN=AffirmTrust Premium, O=AffirmTrust, C=US
  Issuer:  CN=AffirmTrust Premium, O=AffirmTrust, C=US
  Algorithm: RSA; Serial number: 0x6d8c1446b1a60aee
  Valid from Fri Jan 29 15:10:36 CET 2010 until Mon Dec 31 15:10:36 CET 2040

adding as trusted cert:
  Subject: OU=Security Communication RootCA1, O=SECOM Trust.net, C=JP
  Issuer:  OU=Security Communication RootCA1, O=SECOM Trust.net, C=JP
  Algorithm: RSA; Serial number: 0x0
  Valid from Tue Sep 30 06:20:49 CEST 2003 until Sat Sep 30 06:20:49 CEST 2023

adding as trusted cert:
  Subject: C=TR, O=EBG Bilişim Teknolojileri ve Hizmetleri A.Ş., CN=EBG Elektronik Sertifika Hizmet Sağlayıcısı
  Issuer:  C=TR, O=EBG Bilişim Teknolojileri ve Hizmetleri A.Ş., CN=EBG Elektronik Sertifika Hizmet Sağlayıcısı
  Algorithm: RSA; Serial number: 0x4caf73421c8e7402
  Valid from Thu Aug 17 02:21:09 CEST 2006 until Sun Aug 14 02:31:09 CEST 2016

adding as trusted cert:
  Subject: CN=GlobalSign, O=GlobalSign, OU=GlobalSign Root CA - R3
  Issuer:  CN=GlobalSign, O=GlobalSign, OU=GlobalSign Root CA - R3
  Algorithm: RSA; Serial number: 0x4000000000121585308a2
  Valid from Wed Mar 18 11:00:00 CET 2009 until Sun Mar 18 11:00:00 CET 2029

adding as trusted cert:
  Subject: CN=Buypass Class 3 Root CA, O=Buypass AS-983163327, C=NO
  Issuer:  CN=Buypass Class 3 Root CA, O=Buypass AS-983163327, C=NO
  Algorithm: RSA; Serial number: 0x2
  Valid from Tue Oct 26 10:28:58 CEST 2010 until Fri Oct 26 10:28:58 CEST 2040

adding as trusted cert:
  Subject: CN=AffirmTrust Networking, O=AffirmTrust, C=US
  Issuer:  CN=AffirmTrust Networking, O=AffirmTrust, C=US
  Algorithm: RSA; Serial number: 0x7c4f04391cd4992d
  Valid from Fri Jan 29 15:08:24 CET 2010 until Tue Dec 31 15:08:24 CET 2030

adding as trusted cert:
  Subject: EMAILADDRESS=hostmaster@spi-inc.org, CN=Certificate Authority, OU=hostmaster, O=Software in the Public Interest, L=Indianapolis, ST=Indiana, C=US
  Issuer:  EMAILADDRESS=hostmaster@spi-inc.org, CN=Certificate Authority, OU=hostmaster, O=Software in the Public Interest, L=Indianapolis, ST=Indiana, C=US
  Algorithm: RSA; Serial number: 0xe88eb6c9f82a1428
  Valid from Tue May 13 10:07:56 CEST 2008 until Fri May 11 10:07:56 CEST 2018

adding as trusted cert:
  Subject: CN=VeriSign Class 1 Public Primary Certification Authority - G3, OU="(c) 1999 VeriSign, Inc. - For authorized use only", OU=VeriSign Trust Network, O="VeriSign, Inc.", C=US
  Issuer:  CN=VeriSign Class 1 Public Primary Certification Authority - G3, OU="(c) 1999 VeriSign, Inc. - For authorized use only", OU=VeriSign Trust Network, O="VeriSign, Inc.", C=US
  Algorithm: RSA; Serial number: 0x8b5b75568454850b00cfaf3848ceb1a4
  Valid from Fri Oct 01 02:00:00 CEST 1999 until Thu Jul 17 01:59:59 CEST 2036

adding as trusted cert:
  Subject: O=Government Root Certification Authority, C=TW
  Issuer:  O=Government Root Certification Authority, C=TW
  Algorithm: RSA; Serial number: 0x1f9d595ad72fc20644a5800869e35ef6
  Valid from Thu Dec 05 14:23:33 CET 2002 until Sun Dec 05 14:23:33 CET 2032

adding as trusted cert:
  Subject: CN=GeoTrust Primary Certification Authority - G3, OU=(c) 2008 GeoTrust Inc. - For authorized use only, O=GeoTrust Inc., C=US
  Issuer:  CN=GeoTrust Primary Certification Authority - G3, OU=(c) 2008 GeoTrust Inc. - For authorized use only, O=GeoTrust Inc., C=US
  Algorithm: RSA; Serial number: 0x15ac6e9419b2794b41f627a9c3180f1f
  Valid from Wed Apr 02 02:00:00 CEST 2008 until Wed Dec 02 00:59:59 CET 2037

adding as trusted cert:
  Subject: CN=AC Raíz Certicámara S.A., O=Sociedad Cameral de Certificación Digital - Certicámara S.A., C=CO
  Issuer:  CN=AC Raíz Certicámara S.A., O=Sociedad Cameral de Certificación Digital - Certicámara S.A., C=CO
  Algorithm: RSA; Serial number: 0x77e52937be015e357f0698ccbec0c
  Valid from Mon Nov 27 21:46:29 CET 2006 until Tue Apr 02 23:42:02 CEST 2030

adding as trusted cert:
  Subject: CN=GlobalSign, O=GlobalSign, OU=GlobalSign ECC Root CA - R5
  Issuer:  CN=GlobalSign, O=GlobalSign, OU=GlobalSign ECC Root CA - R5
  Algorithm: EC; Serial number: 0x605949e0262ebb55f90a778a71f94ad86c
  Valid from Tue Nov 13 01:00:00 CET 2012 until Tue Jan 19 04:14:07 CET 2038

adding as trusted cert:
  Subject: CN=Starfield Root Certificate Authority - G2, O="Starfield Technologies, Inc.", L=Scottsdale, ST=Arizona, C=US
  Issuer:  CN=Starfield Root Certificate Authority - G2, O="Starfield Technologies, Inc.", L=Scottsdale, ST=Arizona, C=US
  Algorithm: RSA; Serial number: 0x0
  Valid from Tue Sep 01 02:00:00 CEST 2009 until Fri Jan 01 00:59:59 CET 2038

adding as trusted cert:
  Subject: CN=VeriSign Class 3 Public Primary Certification Authority - G4, OU="(c) 2007 VeriSign, Inc. - For authorized use only", OU=VeriSign Trust Network, O="VeriSign, Inc.", C=US
  Issuer:  CN=VeriSign Class 3 Public Primary Certification Authority - G4, OU="(c) 2007 VeriSign, Inc. - For authorized use only", OU=VeriSign Trust Network, O="VeriSign, Inc.", C=US
  Algorithm: EC; Serial number: 0x2f80fe238c0e220f486712289187acb3
  Valid from Mon Nov 05 01:00:00 CET 2007 until Tue Jan 19 00:59:59 CET 2038

adding as trusted cert:
  Subject: C=ES, O=ACCV, OU=PKIACCV, CN=ACCVRAIZ1
  Issuer:  C=ES, O=ACCV, OU=PKIACCV, CN=ACCVRAIZ1
  Algorithm: RSA; Serial number: 0x5ec3b7a6437fa4e0
  Valid from Thu May 05 11:37:37 CEST 2011 until Tue Dec 31 10:37:37 CET 2030

adding as trusted cert:
  Subject: CN=Certplus Root CA G1, O=Certplus, C=FR
  Issuer:  CN=Certplus Root CA G1, O=Certplus, C=FR
  Algorithm: RSA; Serial number: 0x11205583e42d3e5456852d8337b72cdc4611
  Valid from Mon May 26 02:00:00 CEST 2014 until Fri Jan 15 01:00:00 CET 2038

adding as trusted cert:
  Subject: CN=USERTrust ECC Certification Authority, O=The USERTRUST Network, L=Jersey City, ST=New Jersey, C=US
  Issuer:  CN=USERTrust ECC Certification Authority, O=The USERTRUST Network, L=Jersey City, ST=New Jersey, C=US
  Algorithm: EC; Serial number: 0x5c8b99c55a94c5d27156decd8980cc26
  Valid from Mon Feb 01 01:00:00 CET 2010 until Tue Jan 19 00:59:59 CET 2038

adding as trusted cert:
  Subject: CN=Sonera Class2 CA, O=Sonera, C=FI
  Issuer:  CN=Sonera Class2 CA, O=Sonera, C=FI
  Algorithm: RSA; Serial number: 0x1d
  Valid from Fri Apr 06 09:29:40 CEST 2001 until Tue Apr 06 09:29:40 CEST 2021

adding as trusted cert:
  Subject: CN=S-TRUST Authentication and Encryption Root CA 2005:PN, O=Deutscher Sparkassen Verlag GmbH, L=Stuttgart, ST=Baden-Wuerttemberg (BW), C=DE
  Issuer:  CN=S-TRUST Authentication and Encryption Root CA 2005:PN, O=Deutscher Sparkassen Verlag GmbH, L=Stuttgart, ST=Baden-Wuerttemberg (BW), C=DE
  Algorithm: RSA; Serial number: 0x371918e653547c1ab5b8cb595adb35b7
  Valid from Wed Jun 22 02:00:00 CEST 2005 until Sat Jun 22 01:59:59 CEST 2030

adding as trusted cert:
  Subject: CN=COMODO ECC Certification Authority, O=COMODO CA Limited, L=Salford, ST=Greater Manchester, C=GB
  Issuer:  CN=COMODO ECC Certification Authority, O=COMODO CA Limited, L=Salford, ST=Greater Manchester, C=GB
  Algorithm: EC; Serial number: 0x1f47afaa62007050544c019e9b63992a
  Valid from Thu Mar 06 01:00:00 CET 2008 until Tue Jan 19 00:59:59 CET 2038

adding as trusted cert:
  Subject: C=IL, O=ComSign, CN=ComSign CA
  Issuer:  C=IL, O=ComSign, CN=ComSign CA
  Algorithm: RSA; Serial number: 0x1413968314558cea7b63e5fc34877744
  Valid from Wed Mar 24 12:32:18 CET 2004 until Mon Mar 19 16:02:18 CET 2029

trigger seeding of SecureRandom
done seeding SecureRandom
Ignoring unsupported cipher suite: TLS_DHE_DSS_WITH_AES_128_CBC_SHA256
Ignoring unsupported cipher suite: TLS_DHE_DSS_WITH_AES_256_CBC_SHA256
Ignoring unsupported cipher suite: TLS_DHE_RSA_WITH_AES_128_CBC_SHA256
Ignoring unsupported cipher suite: TLS_ECDH_RSA_WITH_AES_128_CBC_SHA256
Ignoring unsupported cipher suite: TLS_DHE_RSA_WITH_AES_256_CBC_SHA256
Ignoring unsupported cipher suite: TLS_ECDHE_RSA_WITH_AES_256_CBC_SHA384
Ignoring unsupported cipher suite: TLS_ECDH_ECDSA_WITH_AES_256_CBC_SHA384
Ignoring unsupported cipher suite: TLS_RSA_WITH_AES_256_CBC_SHA256
Ignoring unsupported cipher suite: TLS_ECDHE_RSA_WITH_AES_128_CBC_SHA256
Ignoring unsupported cipher suite: TLS_ECDHE_ECDSA_WITH_AES_256_CBC_SHA384
Ignoring unsupported cipher suite: TLS_ECDH_RSA_WITH_AES_256_CBC_SHA384
Ignoring unsupported cipher suite: TLS_ECDHE_ECDSA_WITH_AES_128_CBC_SHA256
Ignoring unsupported cipher suite: TLS_ECDH_ECDSA_WITH_AES_128_CBC_SHA256
Ignoring unsupported cipher suite: TLS_RSA_WITH_AES_128_CBC_SHA256
Allow unsafe renegotiation: false
Allow legacy hello messages: true
Is initial handshake: true
Is secure renegotiation: false
tilesReader1, setSoTimeout(30000) called
tilesReader1, setSoTimeout(30000) called
%% No cached client session
*** ClientHello, TLSv1
RandomCookie:  GMT: 1494244512 bytes = { 103, 35, 189, 62, 169, 66, 31, 168, 96, 210, 246, 189, 218, 120, 154, 227, 125, 225, 156, 184, 199, 197, 62, 108, 147, 189, 195, 143 }
Session ID:  {}
Cipher Suites: [TLS_ECDHE_ECDSA_WITH_AES_256_CBC_SHA, TLS_ECDHE_RSA_WITH_AES_256_CBC_SHA, TLS_RSA_WITH_AES_256_CBC_SHA, TLS_ECDH_ECDSA_WITH_AES_256_CBC_SHA, TLS_ECDH_RSA_WITH_AES_256_CBC_SHA, TLS_DHE_RSA_WITH_AES_256_CBC_SHA, TLS_DHE_DSS_WITH_AES_256_CBC_SHA, TLS_ECDHE_ECDSA_WITH_AES_128_CBC_SHA, TLS_ECDHE_RSA_WITH_AES_128_CBC_SHA, TLS_RSA_WITH_AES_128_CBC_SHA, TLS_ECDH_ECDSA_WITH_AES_128_CBC_SHA, TLS_ECDH_RSA_WITH_AES_128_CBC_SHA, TLS_DHE_RSA_WITH_AES_128_CBC_SHA, TLS_DHE_DSS_WITH_AES_128_CBC_SHA, TLS_ECDHE_ECDSA_WITH_3DES_EDE_CBC_SHA, TLS_ECDHE_RSA_WITH_3DES_EDE_CBC_SHA, SSL_RSA_WITH_3DES_EDE_CBC_SHA, TLS_ECDH_ECDSA_WITH_3DES_EDE_CBC_SHA, TLS_ECDH_RSA_WITH_3DES_EDE_CBC_SHA, SSL_DHE_RSA_WITH_3DES_EDE_CBC_SHA, SSL_DHE_DSS_WITH_3DES_EDE_CBC_SHA, TLS_EMPTY_RENEGOTIATION_INFO_SCSV]
Compression Methods:  { 0 }
Extension elliptic_curves, curve names: {secp256r1, secp384r1, secp521r1}
Extension ec_point_formats, formats: [uncompressed]
***
tilesReader1, WRITE: TLSv1 Handshake, length = 107
tilesReader1, READ: TLSv1 Handshake, length = 89
*** ServerHello, TLSv1
RandomCookie:  GMT: -1677519451 bytes = { 231, 50, 104, 60, 20, 171, 185, 178, 144, 178, 166, 72, 227, 81, 213, 177, 60, 53, 245, 191, 207, 157, 135, 53, 12, 27, 138, 92 }
Session ID:  {48, 0, 49, 58, 92, 255, 101, 147, 247, 45, 115, 58, 253, 214, 35, 29, 150, 255, 226, 47, 134, 170, 89, 84, 151, 26, 83, 200, 184, 132, 87, 57}
Cipher Suite: TLS_ECDHE_RSA_WITH_AES_128_CBC_SHA
Compression Method: 0
Extension renegotiation_info, renegotiated_connection: <empty>
Extension ec_point_formats, formats: [uncompressed, ansiX962_compressed_prime, ansiX962_compressed_char2]
***
%% Initialized:  [Session-1, TLS_ECDHE_RSA_WITH_AES_128_CBC_SHA]
** TLS_ECDHE_RSA_WITH_AES_128_CBC_SHA
tilesReader1, READ: TLSv1 Handshake, length = 4637
*** Certificate chain
chain [0] = [
[
  Version: V3
  Subject: CN=bgdi.ch
  Signature Algorithm: SHA256withRSA, OID = 1.2.840.113549.1.1.11

  Key:  Sun RSA public key, 2048 bits
  modulus: 22015709475128942928801841021266027407138612838144722693665662501065793139741412909912314953243481320858881712386705115783915260211702274382495333939178445492823263355276921138749902644302996266671521469143929871203827335332509939252186905761311724802186153931054910561794323840726121677989403641854704148924820419300886553396615293105362734828552225709716393360998879163851111777146513850640152351039603674615493382260094225047981217000360999498359869485441670978359581923909842070255213373145061312592498112239376695527380785098330715644405566055595523361374766897238063411985930627815180761814768980530710698513023
  public exponent: 65537
  Validity: [From: Fri Oct 07 02:00:00 CEST 2016,
               To: Tue Nov 07 13:00:00 CET 2017]
  Issuer: CN=Amazon, OU=Server CA 1B, O=Amazon, C=US
  SerialNumber: [    0b456a94 7cbfc7d7 19e71f0a db82e56e]

Certificate Extensions: 9
[1]: ObjectId: 1.3.6.1.5.5.7.1.1 Criticality=false
AuthorityInfoAccess [
  [
   accessMethod: ocsp
   accessLocation: URIName: http://ocsp.sca1b.amazontrust.com
, 
   accessMethod: caIssuers
   accessLocation: URIName: http://crt.sca1b.amazontrust.com/sca1b.crt
]
]

[2]: ObjectId: 2.5.29.35 Criticality=false
AuthorityKeyIdentifier [
KeyIdentifier [
0000: 59 A4 66 06 52 A0 7B 95   92 3C A3 94 07 27 96 74  Y.f.R....<...'.t
0010: 5B F9 3D D0                                        [.=.
]
]

[3]: ObjectId: 2.5.29.19 Criticality=true
BasicConstraints:[
  CA:false
  PathLen: undefined
]

[4]: ObjectId: 2.5.29.31 Criticality=false
CRLDistributionPoints [
  [DistributionPoint:
     [URIName: http://crl.sca1b.amazontrust.com/sca1b.crl]
]]

[5]: ObjectId: 2.5.29.32 Criticality=false
CertificatePolicies [
  [CertificatePolicyId: [2.23.140.1.2.1]
[]  ]
]

[6]: ObjectId: 2.5.29.37 Criticality=false
ExtendedKeyUsages [
  serverAuth
  clientAuth
]

[7]: ObjectId: 2.5.29.15 Criticality=true
KeyUsage [
  DigitalSignature
  Key_Encipherment
]

[8]: ObjectId: 2.5.29.17 Criticality=false
SubjectAlternativeName [
  DNSName: bgdi.ch
  DNSName: *.bgdi.ch
  DNSName: *.ci.bgdi.ch
  DNSName: *.demo.bgdi.ch
  DNSName: *.dev.bgdi.ch
  DNSName: *.infra.bgdi.ch
  DNSName: *.int.bgdi.ch
  DNSName: *.prod.bgdi.ch
]

[9]: ObjectId: 2.5.29.14 Criticality=false
SubjectKeyIdentifier [
KeyIdentifier [
0000: 7D 2B 53 C9 EB 99 F4 FE   62 04 09 1C 7A 5B A5 44  .+S.....b...z[.D
0010: 92 F9 89 C2                                        ....
]
]

]
  Algorithm: [SHA256withRSA]
  Signature:
0000: 98 F6 BD 9B C8 74 FB 09   DF 5F 11 07 B8 9E 68 2C  .....t..._....h,
0010: 39 CA FD A8 A2 B8 52 CA   7F 3B 1C 99 C4 99 68 D3  9.....R..;....h.
0020: 0D F4 08 97 25 1D EB BF   C4 51 18 E5 BE F2 C8 A5  ....%....Q......
0030: AD 3E B7 F4 2D EB AB 47   EF 64 2C 22 2C 61 A1 FA  .>..-..G.d,",a..
0040: 13 4D CF 59 3D 1F A3 D7   46 2A D4 A2 AD 71 60 03  .M.Y=...F*...q`.
0050: BE 2A 73 A2 3A 6F 7C B5   D2 00 9A 9E 72 0D 72 CE  .*s.:o......r.r.
0060: 9C 5F 5F 34 F8 33 20 9F   DF 4D 11 B4 46 49 83 90  .__4.3 ..M..FI..
0070: 05 A0 95 69 0D 1F D1 F4   70 E4 77 2D 08 F8 19 31  ...i....p.w-...1
0080: 57 8D D8 89 5E 1F 72 CE   E5 E9 A1 02 E2 FB 23 BF  W...^.r.......#.
0090: FD 7F 26 9F 41 6F 7B BD   43 2F 8F 4D 45 17 33 9A  ..&.Ao..C/.ME.3.
00A0: AF F3 99 2E 04 29 19 6E   3F 5B 77 75 BF 9D 0B 11  .....).n?[wu....
00B0: 49 77 FF 99 C6 94 8B 04   78 43 1F 36 D3 F5 D9 9B  Iw......xC.6....
00C0: A6 76 6E 20 DE DF FA AB   E1 9C C1 49 D0 96 B7 2D  .vn .......I...-
00D0: CF C5 AE E5 5B 0F 2D 14   19 C0 7A C1 05 8F 70 81  ....[.-...z...p.
00E0: 5A 35 01 A6 C3 48 D7 15   C7 05 5D 8C 18 5A 81 7D  Z5...H....]..Z..
00F0: 55 0F BA 1A 0E E7 C0 41   E2 25 C1 FE 3B B5 34 0A  U......A.%..;.4.

]
chain [1] = [
[
  Version: V3
  Subject: CN=Amazon, OU=Server CA 1B, O=Amazon, C=US
  Signature Algorithm: SHA256withRSA, OID = 1.2.840.113549.1.1.11

  Key:  Sun RSA public key, 2048 bits
  modulus: 24528737555851895213919827617064808536856788789868126310716752303420041319710819680867697306230985630039655096548324364189962675576756038921107965025585889330528490649228935527969954506874750514159926943451238689552458142167021149788529783891257271028002485075630471793111207960868638365698705018555597520367289025831586046483446904825820575805338475813865444295353094097022678376192149453480223428943386514159000527368947588174705227657134217583008630047462959260157651883088072156905420231950318110240318878613016990846576820326568049365612395397183597930457965295993595011597251067348997341253617591444999389873893
  public exponent: 65537
  Validity: [From: Thu Oct 22 02:00:00 CEST 2015,
               To: Sun Oct 19 02:00:00 CEST 2025]
  Issuer: CN=Amazon Root CA 1, O=Amazon, C=US
  SerialNumber: [    067f9457 8587e8ac 77deb253 325bbc99 8b560d]

Certificate Extensions: 7
[1]: ObjectId: 1.3.6.1.5.5.7.1.1 Criticality=false
AuthorityInfoAccess [
  [
   accessMethod: ocsp
   accessLocation: URIName: http://ocsp.rootca1.amazontrust.com
, 
   accessMethod: caIssuers
   accessLocation: URIName: http://crt.rootca1.amazontrust.com/rootca1.cer
]
]

[2]: ObjectId: 2.5.29.35 Criticality=false
AuthorityKeyIdentifier [
KeyIdentifier [
0000: 84 18 CC 85 34 EC BC 0C   94 94 2E 08 59 9C C7 B2  ....4.......Y...
0010: 10 4E 0A 08                                        .N..
]
]

[3]: ObjectId: 2.5.29.19 Criticality=true
BasicConstraints:[
  CA:true
  PathLen:0
]

[4]: ObjectId: 2.5.29.31 Criticality=false
CRLDistributionPoints [
  [DistributionPoint:
     [URIName: http://crl.rootca1.amazontrust.com/rootca1.crl]
]]

[5]: ObjectId: 2.5.29.32 Criticality=false
CertificatePolicies [
  [CertificatePolicyId: [2.23.140.1.2.1]
[]  ]
]

[6]: ObjectId: 2.5.29.15 Criticality=true
KeyUsage [
  DigitalSignature
  Key_CertSign
  Crl_Sign
]

[7]: ObjectId: 2.5.29.14 Criticality=false
SubjectKeyIdentifier [
KeyIdentifier [
0000: 59 A4 66 06 52 A0 7B 95   92 3C A3 94 07 27 96 74  Y.f.R....<...'.t
0010: 5B F9 3D D0                                        [.=.
]
]

]
  Algorithm: [SHA256withRSA]
  Signature:
0000: 85 92 BE 35 BB 79 CF A3   81 42 1C E4 E3 63 73 53  ...5.y...B...csS
0010: 39 52 35 E7 D1 AD FD AE   99 8A AC 89 12 2F BB E7  9R5........../..
0020: 6F 9A D5 4E 72 EA 20 30   61 F9 97 B2 CD A5 27 02  o..Nr. 0a.....'.
0030: 45 A8 CA 76 3E 98 4A 83   9E B6 E6 45 E0 F2 43 F6  E..v>.J....E..C.
0040: 08 DE 6D E8 6E DB 31 07   13 F0 2F 31 0D 93 6D 61  ..m.n.1.../1..ma
0050: 37 7B 58 F0 FC 51 98 91   28 02 4F 05 76 B7 D3 F0  7.X..Q..(.O.v...
0060: 1B C2 E6 5E D0 66 85 11   0F 2E 81 C6 10 81 29 FE  ...^.f........).
0070: 20 60 48 F3 F2 F0 84 13   53 65 35 15 11 6B 82 51   `H.....Se5..k.Q
0080: 40 55 57 5F 18 B5 B0 22   3E AD F2 5E A3 01 E3 C3  @UW_...">..^....
0090: B3 F9 CB 41 5A E6 52 91   BB E4 36 87 4F 2D A9 A4  ...AZ.R...6.O-..
00A0: 07 68 35 BA 94 72 CD 0E   EA 0E 7D 57 F2 79 FC 37  .h5..r.....W.y.7
00B0: C5 7B 60 9E B2 EB C0 2D   90 77 0D 49 10 27 A5 38  ..`....-.w.I.'.8
00C0: AD C4 12 A3 B4 A3 C8 48   B3 15 0B 1E E2 E2 19 DC  .......H........
00D0: C4 76 52 C8 BC 8A 41 78   70 D9 6D 97 B3 4A 8B 78  .vR...Axp.m..J.x
00E0: 2D 5E B4 0F A3 4C 60 CA   E1 47 CB 78 2D 12 17 B1  -^...L`..G.x-...
00F0: 52 8B CA 39 2C BD B5 2F   C2 33 02 96 AB DA 94 7F  R..9,../.3......

]
chain [2] = [
[
  Version: V3
  Subject: CN=Amazon Root CA 1, O=Amazon, C=US
  Signature Algorithm: SHA256withRSA, OID = 1.2.840.113549.1.1.11

  Key:  Sun RSA public key, 2048 bits
  modulus: 22529839904807742196558773392430766620630713202204326167346456925862066285712069978308045976033918808540171076811098215136401323342247576789054764683787147408289170989302937775178809187827657352584557953877946352196797789035355954596527030584944622221752357105572088106020206921431118198373122638305846252087992561841631797199384157902018140720267433956687491591657652730221337591680012205319549572614035105482287002884850178224609018864719685310905426619874727796905080238179726224664042154200651710137931048812546957419686875805576245376866031854569863410951649630469236463991472642618512857920826701027482532358669
  public exponent: 65537
  Validity: [From: Mon May 25 14:00:00 CEST 2015,
               To: Thu Dec 31 02:00:00 CET 2037]
  Issuer: CN=Starfield Services Root Certificate Authority - G2, O="Starfield Technologies, Inc.", L=Scottsdale, ST=Arizona, C=US
  SerialNumber: [    067f944a 2a27cdf3 fac2ae2b 01f908ee b9c4c6]

Certificate Extensions: 7
[1]: ObjectId: 1.3.6.1.5.5.7.1.1 Criticality=false
AuthorityInfoAccess [
  [
   accessMethod: ocsp
   accessLocation: URIName: http://ocsp.rootg2.amazontrust.com
, 
   accessMethod: caIssuers
   accessLocation: URIName: http://crt.rootg2.amazontrust.com/rootg2.cer
]
]

[2]: ObjectId: 2.5.29.35 Criticality=false
AuthorityKeyIdentifier [
KeyIdentifier [
0000: 9C 5F 00 DF AA 01 D7 30   2B 38 88 A2 B8 6D 4A 9C  ._.....0+8...mJ.
0010: F2 11 91 83                                        ....
]
]

[3]: ObjectId: 2.5.29.19 Criticality=true
BasicConstraints:[
  CA:true
  PathLen:2147483647
]

[4]: ObjectId: 2.5.29.31 Criticality=false
CRLDistributionPoints [
  [DistributionPoint:
     [URIName: http://crl.rootg2.amazontrust.com/rootg2.crl]
]]

[5]: ObjectId: 2.5.29.32 Criticality=false
CertificatePolicies [
  [CertificatePolicyId: [2.5.29.32.0]
[]  ]
]

[6]: ObjectId: 2.5.29.15 Criticality=true
KeyUsage [
  DigitalSignature
  Key_CertSign
  Crl_Sign
]

[7]: ObjectId: 2.5.29.14 Criticality=false
SubjectKeyIdentifier [
KeyIdentifier [
0000: 84 18 CC 85 34 EC BC 0C   94 94 2E 08 59 9C C7 B2  ....4.......Y...
0010: 10 4E 0A 08                                        .N..
]
]

]
  Algorithm: [SHA256withRSA]
  Signature:
0000: 62 37 42 5C BC 10 B5 3E   8B 2C E9 0C 9B 6C 45 E2  b7B\...>.,...lE.
0010: 07 00 7A F9 C5 58 0B B9   08 8C 3E ED B3 25 3C B5  ..z..X....>..%<.
0020: 6F 50 E4 CD 35 6A A7 93   34 96 32 21 A9 48 44 AB  oP..5j..4.2!.HD.
0030: 9C ED 3D B4 AA 73 6D E4   7F 16 80 89 6C CF 28 03  ..=..sm.....l.(.
0040: 18 83 47 79 A3 10 7E 30   5B AC 3B B0 60 E0 77 D4  ..Gy...0[.;.`.w.
0050: 08 A6 E1 1D 7C 5E C0 BB   F9 9A 7B 22 9D A7 00 09  .....^....."....
0060: 7E AC 46 17 83 DC 9C 26   57 99 30 39 62 96 8F ED  ..F....&W.09b...
0070: DA DE AA C5 CC 1B 3E CA   43 68 6C 57 16 BC D5 0E  ......>.ChlW....
0080: 20 2E FE FF C2 6A 5D 2E   A0 4A 6D 14 58 87 94 E6   ....j]..Jm.X...
0090: 39 31 5F 7C 73 CB 90 88   6A 84 11 96 27 A6 ED D9  91_.s...j...'...
00A0: 81 46 A6 7E A3 72 00 0A   52 3E 83 88 07 63 77 89  .F...r..R>...cw.
00B0: 69 17 0F 39 85 D2 AB 08   45 4D D0 51 3A FD 5D 5D  i..9....EM.Q:.]]
00C0: 37 64 4C 7E 30 B2 55 24   42 9D 36 B0 5D 9C 17 81  7dL.0.U$B.6.]...
00D0: 61 F1 CA F9 10 02 24 AB   EB 0D 74 91 8D 7B 45 29  a.....$...t...E)
00E0: 50 39 88 B2 A6 89 35 25   1E 14 6A 47 23 31 2F 5C  P9....5%..jG#1/\
00F0: 9A FA AD 9A 0E 62 51 A4   2A A9 C4 F9 34 9D 21 18  .....bQ.*...4.!.

]
chain [3] = [
[
  Version: V3
  Subject: CN=Starfield Services Root Certificate Authority - G2, O="Starfield Technologies, Inc.", L=Scottsdale, ST=Arizona, C=US
  Signature Algorithm: SHA256withRSA, OID = 1.2.840.113549.1.1.11

  Key:  Sun RSA public key, 2048 bits
  modulus: 26894789576491863019171445242018370132029525033879210664513024255165308689836081694724912552986436241602345929261854187816625921774943728567119070351838976265193901442169339571326613928339955106648223197498035701437846440970934704192382084561469274550003268570741310868032789070264835003681318445644941362885752628282968349509706358865971392279088395067847314610178969555804359319567178098112935181143559364150874524817692694181296058297355335204675211145990489303168553611700020424738364579606192390834705213026692659672388567853246354560726855054573503174641583891075106464210711468427779853334564691648681991700229
  public exponent: 65537
  Validity: [From: Wed Sep 02 02:00:00 CEST 2009,
               To: Wed Jun 28 19:39:16 CEST 2034]
  Issuer: OU=Starfield Class 2 Certification Authority, O="Starfield Technologies, Inc.", C=US
  SerialNumber: [    a70e4a4c 3482b77f]

Certificate Extensions: 7
[1]: ObjectId: 1.3.6.1.5.5.7.1.1 Criticality=false
AuthorityInfoAccess [
  [
   accessMethod: ocsp
   accessLocation: URIName: http://o.ss2.us/
, 
   accessMethod: caIssuers
   accessLocation: URIName: http://x.ss2.us/x.cer
]
]

[2]: ObjectId: 2.5.29.35 Criticality=false
AuthorityKeyIdentifier [
KeyIdentifier [
0000: BF 5F B7 D1 CE DD 1F 86   F4 5B 55 AC DC D7 10 C2  ._.......[U.....
0010: 0E A9 88 E7                                        ....
]
]

[3]: ObjectId: 2.5.29.19 Criticality=true
BasicConstraints:[
  CA:true
  PathLen:2147483647
]

[4]: ObjectId: 2.5.29.31 Criticality=false
CRLDistributionPoints [
  [DistributionPoint:
     [URIName: http://s.ss2.us/r.crl]
]]

[5]: ObjectId: 2.5.29.32 Criticality=false
CertificatePolicies [
  [CertificatePolicyId: [2.5.29.32.0]
[]  ]
]

[6]: ObjectId: 2.5.29.15 Criticality=true
KeyUsage [
  DigitalSignature
  Key_CertSign
  Crl_Sign
]

[7]: ObjectId: 2.5.29.14 Criticality=false
SubjectKeyIdentifier [
KeyIdentifier [
0000: 9C 5F 00 DF AA 01 D7 30   2B 38 88 A2 B8 6D 4A 9C  ._.....0+8...mJ.
0010: F2 11 91 83                                        ....
]
]

]
  Algorithm: [SHA256withRSA]
  Signature:
0000: 23 1D E3 8A 57 CA 7D E9   17 79 4C F1 1E 55 FD CC  #...W....yL..U..
0010: 53 6E 3E 47 0F DF C6 55   F2 B2 04 36 ED 80 1F 53  Sn>G...U...6...S
0020: C4 5D 34 28 6B BE C7 55   FC 67 EA CB 3F 7F 90 B2  .]4(k..U.g..?...
0030: 33 CD 1B 58 10 82 02 F8   F8 2F F5 13 60 D4 05 CE  3..X...../..`...
0040: F1 81 08 C1 DD A7 75 97   4F 18 B9 6D DE F7 93 91  ......u.O..m....
0050: 08 BA 7E 40 2C ED C1 EA   BB 76 9E 33 06 77 1D 0D  ...@,....v.3.w..
0060: 08 7F 53 DD 1B 64 AB 82   27 F1 69 D5 4D 5E AE F4  ..S..d..'.i.M^..
0070: A1 C3 75 A7 58 44 2D F2   3C 70 98 AC BA 69 B6 95  ..u.XD-.<p...i..
0080: 77 7F 0F 31 5E 2C FC A0   87 3A 47 69 F0 79 5F F4  w..1^,...:Gi.y_.
0090: 14 54 A4 95 5E 11 78 12   60 27 CE 9F C2 77 FF 23  .T..^.x.`'...w.#
00A0: 53 77 5D BA FF EA 59 E7   DB CF AF 92 96 EF 24 9A  Sw]...Y.......$.
00B0: 35 10 7A 9C 91 C6 0E 7D   99 F6 3F 19 DF F5 72 54  5.z.......?...rT
00C0: E1 15 A9 07 59 7B 83 BF   52 2E 46 8C B2 00 64 76  ....Y...R.F...dv
00D0: 1C 48 D3 D8 79 E8 6E 56   CC AE 2C 03 90 D7 19 38  .H..y.nV..,....8
00E0: 99 E4 CA 09 19 5B FF 07   96 B0 A8 7F 34 49 DF 56  .....[......4I.V
00F0: A9 F7 B0 5F ED 33 ED 8C   47 B7 30 03 5D F4 03 8C  ..._.3..G.0.]...

]
***
Found trusted certificate:
[
[
  Version: V3
  Subject: CN=Starfield Services Root Certificate Authority - G2, O="Starfield Technologies, Inc.", L=Scottsdale, ST=Arizona, C=US
  Signature Algorithm: SHA256withRSA, OID = 1.2.840.113549.1.1.11

  Key:  Sun RSA public key, 2048 bits
  modulus: 26894789576491863019171445242018370132029525033879210664513024255165308689836081694724912552986436241602345929261854187816625921774943728567119070351838976265193901442169339571326613928339955106648223197498035701437846440970934704192382084561469274550003268570741310868032789070264835003681318445644941362885752628282968349509706358865971392279088395067847314610178969555804359319567178098112935181143559364150874524817692694181296058297355335204675211145990489303168553611700020424738364579606192390834705213026692659672388567853246354560726855054573503174641583891075106464210711468427779853334564691648681991700229
  public exponent: 65537
  Validity: [From: Tue Sep 01 02:00:00 CEST 2009,
               To: Fri Jan 01 00:59:59 CET 2038]
  Issuer: CN=Starfield Services Root Certificate Authority - G2, O="Starfield Technologies, Inc.", L=Scottsdale, ST=Arizona, C=US
  SerialNumber: [    00]

Certificate Extensions: 3
[1]: ObjectId: 2.5.29.19 Criticality=true
BasicConstraints:[
  CA:true
  PathLen:2147483647
]

[2]: ObjectId: 2.5.29.15 Criticality=true
KeyUsage [
  Key_CertSign
  Crl_Sign
]

[3]: ObjectId: 2.5.29.14 Criticality=false
SubjectKeyIdentifier [
KeyIdentifier [
0000: 9C 5F 00 DF AA 01 D7 30   2B 38 88 A2 B8 6D 4A 9C  ._.....0+8...mJ.
0010: F2 11 91 83                                        ....
]
]

]
  Algorithm: [SHA256withRSA]
  Signature:
0000: 4B 36 A6 84 77 69 DD 3B   19 9F 67 23 08 6F 0E 61  K6..wi.;..g#.o.a
0010: C9 FD 84 DC 5F D8 36 81   CD D8 1B 41 2D 9F 60 DD  ...._.6....A-.`.
0020: C7 1A 68 D9 D1 6E 86 E1   88 23 CF 13 DE 43 CF E2  ..h..n...#...C..
0030: 34 B3 04 9D 1F 29 D5 BF   F8 5E C8 D5 C1 BD EE 92  4....)...^......
0040: 6F 32 74 F2 91 82 2F BD   82 42 7A AD 2A B7 20 7D  o2t.../..Bz.*. .
0050: 4D BC 7A 55 12 C2 15 EA   BD F7 6A 95 2E 6C 74 9F  M.zU......j..lt.
0060: CF 1C B4 F2 C5 01 A3 85   D0 72 3E AD 73 AB 0B 9B  .........r>.s...
0070: 75 0C 6D 45 B7 8E 94 AC   96 37 B5 A0 D0 8F 15 47  u.mE.....7.....G
0080: 0E E3 E8 83 DD 8F FD EF   41 01 77 CC 27 A9 62 85  ........A.w.'.b.
0090: 33 F2 37 08 EF 71 CF 77   06 DE C8 19 1D 88 40 CF  3.7..q.w......@.
00A0: 7D 46 1D FF 1E C7 E1 CE   FF 23 DB C6 FA 8D 55 4E  .F.......#....UN
00B0: A9 02 E7 47 11 46 3E F4   FD BD 7B 29 26 BB A9 61  ...G.F>....)&..a
00C0: 62 37 28 B6 2D 2A F6 10   86 64 C9 70 A7 D2 AD B7  b7(.-*...d.p....
00D0: 29 70 79 EA 3C DA 63 25   9F FD 68 B7 30 EC 70 FB  )py.<.c%..h.0.p.
00E0: 75 8A B7 6D 60 67 B2 1E   C8 B9 E9 D8 A8 6F 02 8B  u..m`g.......o..
00F0: 67 0D 4D 26 57 71 DA 20   FC C1 4A 50 8D B1 28 BA  g.M&Wq. ..JP..(.

]
tilesReader1, READ: TLSv1 Handshake, length = 331
*** ECDH ServerKeyExchange
Server key: SunPKCS11-NSS EC public key, 256 bits (id 16, session object)
  public x coord: 40622340864622361193181322192329809863271891348023493014933225233562290211003
  public y coord: 91770932430330168950597067128105907993526877616336610378870721514140946762908
  parameters: secp256r1 [NIST P-256, X9.62 prime256v1] (1.2.840.10045.3.1.7)
tilesReader1, READ: TLSv1 Handshake, length = 4
*** ServerHelloDone
*** ECDHClientKeyExchange
ECDH Public value:  { 4, 242, 83, 78, 79, 186, 65, 14, 231, 192, 40, 144, 116, 146, 193, 173, 208, 13, 175, 97, 194, 204, 167, 87, 116, 204, 77, 181, 232, 130, 106, 210, 191, 171, 79, 231, 227, 170, 74, 49, 11, 50, 147, 29, 192, 148, 129, 109, 5, 161, 132, 210, 219, 43, 109, 22, 61, 18, 50, 203, 18, 85, 200, 89, 62 }
tilesReader1, WRITE: TLSv1 Handshake, length = 70
SESSION KEYGEN:
PreMaster Secret:
0000: 0B 06 41 0B 1A 49 F9 4E   AC 7C 8F 4B CC 77 90 2A  ..A..I.N...K.w.*
0010: 0B 5E 4A 9C 9D 24 EE BD   CE 08 35 97 66 59 FD 81  .^J..$....5.fY..
CONNECTION KEYGEN:
Client Nonce:
0000: 59 10 5D A0 67 23 BD 3E   A9 42 1F A8 60 D2 F6 BD  Y.].g#.>.B..`...
0010: DA 78 9A E3 7D E1 9C B8   C7 C5 3E 6C 93 BD C3 8F  .x........>l....
Server Nonce:
0000: 9C 03 16 A5 E7 32 68 3C   14 AB B9 B2 90 B2 A6 48  .....2h<.......H
0010: E3 51 D5 B1 3C 35 F5 BF   CF 9D 87 35 0C 1B 8A 5C  .Q..<5.....5...\
Master Secret:
0000: F6 9A 78 B1 A9 0E AA DA   B3 4F BB CE 85 C6 79 CC  ..x......O....y.
0010: 6C 0D 00 1F BF 82 93 AC   AA EE E9 FF 0F 3E F2 26  l............>.&
0020: A4 76 13 EC 3A A0 A7 BA   67 0E 55 1B 5B C6 44 59  .v..:...g.U.[.DY
Client MAC write Secret:
0000: A3 82 2F 37 CA AB 0D DD   23 FE 17 A3 3A D5 DE 3A  ../7....#...:..:
0010: 33 89 AD C5                                        3...
Server MAC write Secret:
0000: E8 E4 31 59 FE 36 D1 29   C2 CD FA D0 9C 42 71 8B  ..1Y.6.).....Bq.
0010: 10 53 A6 9C                                        .S..
Client write key:
0000: E7 26 98 86 54 4F 63 20   80 87 67 F0 1F 0C 0B DE  .&..TOc ..g.....
Server write key:
0000: 98 F2 03 E9 05 C7 17 60   B9 F9 86 BE 15 B6 8B D5  .......`........
Client write IV:
0000: 5A 7B 38 14 03 D5 03 56   0A 02 20 0F 94 F7 41 EA  Z.8....V.. ...A.
Server write IV:
0000: D9 68 5A 24 44 7E 57 42   16 40 48 31 51 DC 40 37  .hZ$D.WB.@H1Q.@7
tilesReader1, WRITE: TLSv1 Change Cipher Spec, length = 1
*** Finished
verify_data:  { 176, 159, 235, 178, 236, 15, 37, 110, 206, 54, 40, 150 }
***
tilesReader1, WRITE: TLSv1 Handshake, length = 48
tilesReader1, READ: TLSv1 Change Cipher Spec, length = 1
tilesReader1, READ: TLSv1 Handshake, length = 48
*** Finished
verify_data:  { 81, 188, 70, 246, 116, 34, 249, 171, 183, 104, 5, 168 }
***
%% Cached client session: [Session-1, TLS_ECDHE_RSA_WITH_AES_128_CBC_SHA]
tilesReader1, WRITE: TLSv1 Application Data, length = 224
tilesReader1, READ: TLSv1 Application Data, length = 1264
2017-05-08 13:59:28,987 [tilesReader1] INFO      org.mapfish.print.PDFUtils - ----->Closing connection
2017-05-08 13:59:29,183 [main] INFO      org.mapfish.print.PDFUtils - -->Alternative: https://api3.geo.admin.ch/qrcodegenerator?url=https%3A%2F%2Fmap.geo.admin.ch%2F%3Flang%3Dfr%26topic%3Dech%26bgLayer%3Dch.swisstopo.pixelkarte-farbe%26layers_opacity%3D0.75%26X%3D127456.30%26Y%3D501379.81%26zoom%3D6
2017-05-08 13:59:29,184 [main] INFO      org.mapfish.print.PDFUtils - -->http_api3.geo.admin.ch
Ignoring unsupported cipher suite: TLS_DHE_DSS_WITH_AES_128_CBC_SHA256
Ignoring unsupported cipher suite: TLS_DHE_DSS_WITH_AES_256_CBC_SHA256
Ignoring unsupported cipher suite: TLS_DHE_RSA_WITH_AES_128_CBC_SHA256
Ignoring unsupported cipher suite: TLS_ECDH_RSA_WITH_AES_128_CBC_SHA256
Ignoring unsupported cipher suite: TLS_DHE_RSA_WITH_AES_256_CBC_SHA256
Ignoring unsupported cipher suite: TLS_ECDHE_RSA_WITH_AES_256_CBC_SHA384
Ignoring unsupported cipher suite: TLS_ECDH_ECDSA_WITH_AES_256_CBC_SHA384
Ignoring unsupported cipher suite: TLS_RSA_WITH_AES_256_CBC_SHA256
Ignoring unsupported cipher suite: TLS_ECDHE_RSA_WITH_AES_128_CBC_SHA256
Ignoring unsupported cipher suite: TLS_ECDHE_ECDSA_WITH_AES_256_CBC_SHA384
Ignoring unsupported cipher suite: TLS_ECDH_RSA_WITH_AES_256_CBC_SHA384
Ignoring unsupported cipher suite: TLS_ECDHE_ECDSA_WITH_AES_128_CBC_SHA256
Ignoring unsupported cipher suite: TLS_ECDH_ECDSA_WITH_AES_128_CBC_SHA256
Ignoring unsupported cipher suite: TLS_RSA_WITH_AES_128_CBC_SHA256
Allow unsafe renegotiation: false
Allow legacy hello messages: true
Is initial handshake: true
Is secure renegotiation: false
main, setSoTimeout(30000) called
main, setSoTimeout(30000) called
%% No cached client session
*** ClientHello, TLSv1
RandomCookie:  GMT: 1494244513 bytes = { 179, 107, 50, 198, 49, 117, 152, 196, 215, 174, 61, 102, 70, 130, 127, 114, 159, 35, 67, 105, 120, 248, 148, 9, 110, 189, 133, 210 }
Session ID:  {}
Cipher Suites: [TLS_ECDHE_ECDSA_WITH_AES_256_CBC_SHA, TLS_ECDHE_RSA_WITH_AES_256_CBC_SHA, TLS_RSA_WITH_AES_256_CBC_SHA, TLS_ECDH_ECDSA_WITH_AES_256_CBC_SHA, TLS_ECDH_RSA_WITH_AES_256_CBC_SHA, TLS_DHE_RSA_WITH_AES_256_CBC_SHA, TLS_DHE_DSS_WITH_AES_256_CBC_SHA, TLS_ECDHE_ECDSA_WITH_AES_128_CBC_SHA, TLS_ECDHE_RSA_WITH_AES_128_CBC_SHA, TLS_RSA_WITH_AES_128_CBC_SHA, TLS_ECDH_ECDSA_WITH_AES_128_CBC_SHA, TLS_ECDH_RSA_WITH_AES_128_CBC_SHA, TLS_DHE_RSA_WITH_AES_128_CBC_SHA, TLS_DHE_DSS_WITH_AES_128_CBC_SHA, TLS_ECDHE_ECDSA_WITH_3DES_EDE_CBC_SHA, TLS_ECDHE_RSA_WITH_3DES_EDE_CBC_SHA, SSL_RSA_WITH_3DES_EDE_CBC_SHA, TLS_ECDH_ECDSA_WITH_3DES_EDE_CBC_SHA, TLS_ECDH_RSA_WITH_3DES_EDE_CBC_SHA, SSL_DHE_RSA_WITH_3DES_EDE_CBC_SHA, SSL_DHE_DSS_WITH_3DES_EDE_CBC_SHA, TLS_EMPTY_RENEGOTIATION_INFO_SCSV]
Compression Methods:  { 0 }
Extension elliptic_curves, curve names: {secp256r1, secp384r1, secp521r1}
Extension ec_point_formats, formats: [uncompressed]
***
main, WRITE: TLSv1 Handshake, length = 107
main, READ: TLSv1 Handshake, length = 89
*** ServerHello, TLSv1
RandomCookie:  GMT: -1635941093 bytes = { 73, 212, 210, 34, 87, 122, 236, 213, 166, 240, 18, 37, 219, 8, 54, 131, 211, 88, 59, 96, 140, 232, 40, 63, 197, 231, 154, 196 }
Session ID:  {23, 13, 100, 202, 178, 222, 201, 151, 183, 142, 83, 7, 185, 217, 249, 31, 72, 152, 4, 243, 88, 176, 181, 245, 45, 201, 58, 138, 187, 145, 125, 78}
Cipher Suite: TLS_ECDHE_RSA_WITH_AES_128_CBC_SHA
Compression Method: 0
Extension renegotiation_info, renegotiated_connection: <empty>
Extension ec_point_formats, formats: [uncompressed, ansiX962_compressed_prime, ansiX962_compressed_char2]
***
%% Initialized:  [Session-2, TLS_ECDHE_RSA_WITH_AES_128_CBC_SHA]
** TLS_ECDHE_RSA_WITH_AES_128_CBC_SHA
main, READ: TLSv1 Handshake, length = 6412
*** Certificate chain
chain [0] = [
[
  Version: V3
  Subject: OID.1.3.6.1.4.1.311.60.2.1.3=CH, OID.2.5.4.15=Government Entity, SERIALNUMBER=113474, EMAILADDRESS=webmaster@geo.admin.ch, CN=wmts.geo.admin.ch, O=Federal Office of Topography swisstopo, STREET=Seftigenstrasse 264, OID.2.5.4.17=3084, L=Wabern, ST=Bern, C=CH
  Signature Algorithm: SHA256withRSA, OID = 1.2.840.113549.1.1.11

  Key:  Sun RSA public key, 4096 bits
  modulus: 973767730257649650638435519922224738078164511870626794635616254183225039154118300511289668386776802725220080155472702669659901730215231564420595903407152964373172713903044152699492376007103986960006932241265752375551013030610938374297075988760381252426476851071716535397695807551211738180128269174724755382219070289374437695334329163216308977460987865136814414277877118661636387850179099514425388755753337652592391148438818576385273704815399571431713935108328044648765181117158574105069737617168483143429713989125778524304083529303224482020943809335549528333480642835425997495344134185803528791796274537496744179369087618237650919155845631431899579931784264348558644834065805335969501723835999996574659010607749105690492895854657300421843195387433311109582798680769107545108278427688578814941170405594082432318844572054761714219597930930371762732961387650624668712694185939005346271524719560060485343869619502843792041495553976604215077501748851412256712490835045479906392923418561503932021840328613835666300870641010032883567308250748063101099819267744803422344525062845836892607970617329583062039155707840797499952199601231642183237583452757928985283066066472798971267493246254636982957025082180174227837581232902520878503255864831
  public exponent: 65537
  Validity: [From: Tue Sep 15 11:18:01 CEST 2015,
               To: Fri Sep 15 16:11:23 CEST 2017]
  Issuer: CN=StartCom Extended Validation Server CA, OU=StartCom Certification Authority, O=StartCom Ltd., C=IL
  SerialNumber: [    114ee88e d2213e]

Certificate Extensions: 10
[1]: ObjectId: 1.3.6.1.5.5.7.1.1 Criticality=false
AuthorityInfoAccess [
  [
   accessMethod: ocsp
   accessLocation: URIName: http://ocsp.startssl.com/sub/class4/server/ca
, 
   accessMethod: caIssuers
   accessLocation: URIName: http://aia.startssl.com/certs/sub.class4.server.ca.crt
]
]

[2]: ObjectId: 2.5.29.35 Criticality=false
AuthorityKeyIdentifier [
KeyIdentifier [
0000: A1 E1 9E 45 25 79 4D 06   D9 02 17 92 82 D5 30 89  ...E%yM.......0.
0010: 72 25 14 A0                                        r%..
]
]

[3]: ObjectId: 2.5.29.19 Criticality=false
BasicConstraints:[
  CA:false
  PathLen: undefined
]

[4]: ObjectId: 2.5.29.31 Criticality=false
CRLDistributionPoints [
  [DistributionPoint:
     [URIName: http://crl.startssl.com/crt4-crl.crl]
]]

[5]: ObjectId: 2.5.29.32 Criticality=false
CertificatePolicies [
  [CertificatePolicyId: [1.3.6.1.4.1.23223.2]
[]  ]
  [CertificatePolicyId: [1.3.6.1.4.1.23223.1.1.1]
[]  ]
  [CertificatePolicyId: [1.3.6.1.4.1.23223.1.2.3]
[PolicyQualifierInfo: [
  qualifierID: 1.3.6.1.5.5.7.2.1
  qualifier: 0000: 16 22 68 74 74 70 3A 2F   2F 77 77 77 2E 73 74 61  ."http://www.sta
0010: 72 74 73 73 6C 2E 63 6F   6D 2F 70 6F 6C 69 63 79  rtssl.com/policy
0020: 2E 70 64 66                                        .pdf

], PolicyQualifierInfo: [
  qualifierID: 1.3.6.1.5.5.7.2.1
  qualifier: 0000: 16 24 68 74 74 70 3A 2F   2F 77 77 77 2E 73 74 61  .$http://www.sta
0010: 72 74 73 73 6C 2E 63 6F   6D 2F 65 78 74 65 6E 64  rtssl.com/extend
0020: 65 64 2E 70 64 66                                  ed.pdf

], PolicyQualifierInfo: [
  qualifierID: 1.3.6.1.5.5.7.2.2
  qualifier: 0000: 30 81 EB 30 27 16 20 53   74 61 72 74 43 6F 6D 20  0..0'. StartCom 
0010: 43 65 72 74 69 66 69 63   61 74 69 6F 6E 20 41 75  Certification Au
0020: 74 68 6F 72 69 74 79 30   03 02 01 01 1A 81 BF 54  thority0.......T
0030: 68 69 73 20 63 65 72 74   69 66 69 63 61 74 65 20  his certificate 
0040: 77 61 73 20 69 73 73 75   65 64 20 61 63 63 6F 72  was issued accor
0050: 64 69 6E 67 20 74 6F 20   74 68 65 20 45 78 74 65  ding to the Exte
0060: 6E 64 65 64 20 56 61 6C   69 64 61 74 69 6F 6E 20  nded Validation 
0070: 72 65 71 75 69 72 65 6D   65 6E 74 73 20 6F 66 20  requirements of 
0080: 74 68 65 20 53 74 61 72   74 43 6F 6D 20 43 41 20  the StartCom CA 
0090: 70 6F 6C 69 63 79 2C 20   72 65 6C 69 61 6E 63 65  policy, reliance
00A0: 20 6F 6E 6C 79 20 66 6F   72 20 74 68 65 20 69 6E   only for the in
00B0: 74 65 6E 64 65 64 20 70   75 72 70 6F 73 65 20 69  tended purpose i
00C0: 6E 20 63 6F 6D 70 6C 69   61 6E 63 65 20 6F 66 20  n compliance of 
00D0: 74 68 65 20 72 65 6C 79   69 6E 67 20 70 61 72 74  the relying part
00E0: 79 20 6F 62 6C 69 67 61   74 69 6F 6E 73 2E        y obligations.

]]  ]
]

[6]: ObjectId: 2.5.29.37 Criticality=false
ExtendedKeyUsages [
  clientAuth
  serverAuth
]

[7]: ObjectId: 2.5.29.18 Criticality=false
IssuerAlternativeName [
  URIName: http://www.startssl.com/
]

[8]: ObjectId: 2.5.29.15 Criticality=false
KeyUsage [
  DigitalSignature
  Key_Encipherment
  Key_Agreement
]

[9]: ObjectId: 2.5.29.17 Criticality=false
SubjectAlternativeName [
  DNSName: wmts.geo.admin.ch
  DNSName: geo.admin.ch
  DNSName: aerialimages.geo.admin.ch
  DNSName: aerialimages0.geo.admin.ch
  DNSName: aerialimages1.geo.admin.ch
  DNSName: aerialimages2.geo.admin.ch
  DNSName: aerialimages3.geo.admin.ch
  DNSName: aerialimages4.geo.admin.ch
  DNSName: api.geo.admin.ch
  DNSName: api3.geo.admin.ch
  DNSName: api4.geo.admin.ch
  DNSName: bit.geo.admin.ch
  DNSName: carta.geo.admin.ch
  DNSName: carte.geo.admin.ch
  DNSName: charta.geo.admin.ch
  DNSName: chat.geo.admin.ch
  DNSName: cms.geo.admin.ch
  DNSName: dashboard.geo.admin.ch
  DNSName: data.geo.admin.ch
  DNSName: db.geo.admin.ch
  DNSName: demo.geo.admin.ch
  DNSName: deploy.geo.admin.ch
  DNSName: dynamo.geo.admin.ch
  DNSName: feature.geo.admin.ch
  DNSName: file.geo.admin.ch
  DNSName: files.geo.admin.ch
  DNSName: git.geo.admin.ch
  DNSName: height.geo.admin.ch
  DNSName: help.geo.admin.ch
  DNSName: historicalmaps.geo.admin.ch
  DNSName: historicalmaps0.geo.admin.ch
  DNSName: historicalmaps1.geo.admin.ch
  DNSName: historicalmaps2.geo.admin.ch
  DNSName: historicalmaps3.geo.admin.ch
  DNSName: historicalmaps4.geo.admin.ch
  DNSName: iam.geo.admin.ch
  DNSName: issue.geo.admin.ch
  DNSName: jenkins.geo.admin.ch
  DNSName: karte.geo.admin.ch
  DNSName: login.geo.admin.ch
  DNSName: logs.geo.admin.ch
  DNSName: map.geo.admin.ch
  DNSName: map2.geo.admin.ch
  DNSName: map3.geo.admin.ch
  DNSName: map4.geo.admin.ch
  DNSName: mapproxy.geo.admin.ch
  DNSName: maps.geo.admin.ch
  DNSName: metadata.geo.admin.ch
  DNSName: metrics.geo.admin.ch
  DNSName: m.geo.admin.ch
  DNSName: m.map.geo.admin.ch
  DNSName: mobile.geo.admin.ch
  DNSName: mobile.map.geo.admin.ch
  DNSName: models.geo.admin.ch
  DNSName: my.geo.admin.ch
  DNSName: ows.geo.admin.ch
  DNSName: print.geo.admin.ch
  DNSName: profile.geo.admin.ch
  DNSName: public.geo.admin.ch
  DNSName: query.geo.admin.ch
  DNSName: schemas.geo.admin.ch
  DNSName: search.geo.admin.ch
  DNSName: s.geo.admin.ch
  DNSName: sso.geo.admin.ch
  DNSName: stats.geo.admin.ch
  DNSName: status.geo.admin.ch
  DNSName: storymaps.geo.admin.ch
  DNSName: talk.geo.admin.ch
  DNSName: terrain0.geo.admin.ch
  DNSName: terrain1.geo.admin.ch
  DNSName: terrain2.geo.admin.ch
  DNSName: terrain3.geo.admin.ch
  DNSName: terrain4.geo.admin.ch
  DNSName: test.geo.admin.ch
  DNSName: ticket.geo.admin.ch
  DNSName: wfs.geo.admin.ch
  DNSName: wms-fedro.geo.admin.ch
  DNSName: wms.geo.admin.ch
  DNSName: wms0.geo.admin.ch
  DNSName: wms1.geo.admin.ch
  DNSName: wms2.geo.admin.ch
  DNSName: wms3.geo.admin.ch
  DNSName: wms4.geo.admin.ch
  DNSName: wms10.geo.admin.ch
  DNSName: wms11.geo.admin.ch
  DNSName: wms12.geo.admin.ch
  DNSName: wms13.geo.admin.ch
  DNSName: wms14.geo.admin.ch
  DNSName: wmts0.geo.admin.ch
  DNSName: wmts1.geo.admin.ch
  DNSName: wmts2.geo.admin.ch
  DNSName: wmts3.geo.admin.ch
  DNSName: wmts4.geo.admin.ch
  DNSName: wmts5.geo.admin.ch
  DNSName: wmts6.geo.admin.ch
  DNSName: wmts7.geo.admin.ch
  DNSName: wmts8.geo.admin.ch
  DNSName: wmts9.geo.admin.ch
  DNSName: wmts10.geo.admin.ch
  DNSName: wmts11.geo.admin.ch
  DNSName: wmts12.geo.admin.ch
  DNSName: wmts13.geo.admin.ch
  DNSName: wmts14.geo.admin.ch
  DNSName: wmts15.geo.admin.ch
  DNSName: wmts16.geo.admin.ch
  DNSName: wmts17.geo.admin.ch
  DNSName: wmts18.geo.admin.ch
  DNSName: wmts19.geo.admin.ch
  DNSName: wmts20.geo.admin.ch
  DNSName: wmts21.geo.admin.ch
  DNSName: wmts22.geo.admin.ch
  DNSName: wmts23.geo.admin.ch
  DNSName: wmts24.geo.admin.ch
  DNSName: wmts25.geo.admin.ch
  DNSName: wmts26.geo.admin.ch
  DNSName: wmts27.geo.admin.ch
  DNSName: wmts28.geo.admin.ch
  DNSName: wmts29.geo.admin.ch
  DNSName: wmts-fedro.geo.admin.ch
  DNSName: wmts-foag.geo.admin.ch
  DNSName: wmts-vd.geo.admin.ch
  DNSName: wps.geo.admin.ch
  DNSName: www.geo.admin.ch
  DNSName: www.map.geo.admin.ch
  DNSName: 2d.geo.admin.ch
  DNSName: 3d.geo.admin.ch
  DNSName: 4d.geo.admin.ch
  DNSName: geodesy.geo.admin.ch
  DNSName: reframe.geo.admin.ch
  DNSName: tms3d.geo.admin.ch
]

[10]: ObjectId: 2.5.29.14 Criticality=false
SubjectKeyIdentifier [
KeyIdentifier [
0000: BB 1D 3C 30 5C D2 B0 77   EB 42 6C A8 15 C4 FE F2  ..<0\..w.Bl.....
0010: 78 DE 5A 1D                                        x.Z.
]
]

]
  Algorithm: [SHA256withRSA]
  Signature:
0000: 99 A5 F9 FE 1D E3 BC 97   23 7E F4 47 A6 9F 32 1B  ........#..G..2.
0010: 95 AA FF 17 CE D2 BB F1   22 2A 8E 4A 42 A1 6B EC  ........"*.JB.k.
0020: F9 C0 41 AB 91 DD C7 D5   18 03 13 29 D1 AF 76 A8  ..A........)..v.
0030: 20 D9 60 07 BC 97 4F 5D   49 12 F2 B1 BB 3A F5 4F   .`...O]I....:.O
0040: 26 0C F2 FA 51 2A 6B 0E   7A C6 8F 8A F6 96 AD 70  &...Q*k.z......p
0050: 8E 7D B1 69 10 F3 E1 0B   6E A7 64 31 8A EC 40 47  ...i....n.d1..@G
0060: F3 EA 49 DE DF 25 E5 60   C7 B4 E1 38 19 07 04 CB  ..I..%.`...8....
0070: B7 A4 BB 79 6E 1E F5 D9   EC 40 BF 45 D7 AB 73 AE  ...yn....@.E..s.
0080: D5 38 FC FD 09 19 79 BA   5D 3F 01 09 7F D4 F9 12  .8....y.]?......
0090: 73 FE 2C 04 38 45 76 EC   CD 8C B6 3F 58 CC 41 36  s.,.8Ev....?X.A6
00A0: C6 39 59 31 1F AE AE 62   B5 F8 E5 3F D8 2D 94 04  .9Y1...b...?.-..
00B0: 68 BA 03 13 2B 54 82 8B   09 61 11 E9 F5 52 1B B9  h...+T...a...R..
00C0: 2F 6B 3F 4B 4D CE 77 95   4C B0 72 37 CD 8B 1C 81  /k?KM.w.L.r7....
00D0: 4B 07 91 9C 78 57 8D 45   FC FD 0D 23 E7 BF EE 52  K...xW.E...#...R
00E0: 0B 28 A4 99 EE 1A EC C7   7E A8 31 13 6E 01 70 99  .(........1.n.p.
00F0: A8 77 4E D4 4B 5A B0 55   F4 BA F7 CE 09 F6 41 41  .wN.KZ.U......AA

]
chain [1] = [
[
  Version: V3
  Subject: CN=StartCom Extended Validation Server CA, OU=StartCom Certification Authority, O=StartCom Ltd., C=IL
  Signature Algorithm: SHA256withRSA, OID = 1.2.840.113549.1.1.11

  Key:  Sun RSA public key, 2048 bits
  modulus: 23071939291136849859053275489236265828765795987503842464118192824564074186315187595162923095211717327162454177619418309127397431730655878863449733659532223616712704988684428726402942403262986992537559037795082495558032194865124136164248547372328591991625093386835432405590438603687290618623419321587432441113457391377863033950457346546285852134793421790737656091538246755934725639902921514746579470699733616588263971266933423969413848260403598564526878107161667106505621098711585897264742896533993337170004634302949772047220541854594973652385042571769572716685782504305506258237794116468748195395536515099772639816461
  public exponent: 65537
  Validity: [From: Thu Jan 01 07:00:01 CET 2009,
               To: Tue Jan 01 07:00:01 CET 2019]
  Issuer: CN=StartCom Certification Authority, OU=Secure Digital Certificate Signing, O=StartCom Ltd., C=IL
  SerialNumber: [    2a]

Certificate Extensions: 7
[1]: ObjectId: 1.3.6.1.5.5.7.1.1 Criticality=false
AuthorityInfoAccess [
  [
   accessMethod: ocsp
   accessLocation: URIName: http://ocsp.startssl.com/ca
, 
   accessMethod: caIssuers
   accessLocation: URIName: http://www.startssl.com/sfsca.crt
]
]

[2]: ObjectId: 2.5.29.35 Criticality=false
AuthorityKeyIdentifier [
KeyIdentifier [
0000: 4E 0B EF 1A A4 40 5B A5   17 69 87 30 CA 34 68 43  N....@[..i.0.4hC
0010: D0 41 AE F2                                        .A..
]
]

[3]: ObjectId: 2.5.29.19 Criticality=true
BasicConstraints:[
  CA:true
  PathLen:0
]

[4]: ObjectId: 2.5.29.31 Criticality=false
CRLDistributionPoints [
  [DistributionPoint:
     [URIName: http://www.startssl.com/sfsca.crl]
, DistributionPoint:
     [URIName: http://crl.startssl.com/sfsca.crl]
]]

[5]: ObjectId: 2.5.29.32 Criticality=false
CertificatePolicies [
  [CertificatePolicyId: [2.5.29.32.0]
[PolicyQualifierInfo: [
  qualifierID: 1.3.6.1.5.5.7.2.1
  qualifier: 0000: 16 22 68 74 74 70 3A 2F   2F 77 77 77 2E 73 74 61  ."http://www.sta
0010: 72 74 73 73 6C 2E 63 6F   6D 2F 70 6F 6C 69 63 79  rtssl.com/policy
0020: 2E 70 64 66                                        .pdf

], PolicyQualifierInfo: [
  qualifierID: 1.3.6.1.5.5.7.2.1
  qualifier: 0000: 16 24 68 74 74 70 3A 2F   2F 77 77 77 2E 73 74 61  .$http://www.sta
0010: 72 74 73 73 6C 2E 63 6F   6D 2F 65 78 74 65 6E 64  rtssl.com/extend
0020: 65 64 2E 70 64 66                                  ed.pdf

]]  ]
]

[6]: ObjectId: 2.5.29.15 Criticality=true
KeyUsage [
  Key_CertSign
  Crl_Sign
]

[7]: ObjectId: 2.5.29.14 Criticality=false
SubjectKeyIdentifier [
KeyIdentifier [
0000: A1 E1 9E 45 25 79 4D 06   D9 02 17 92 82 D5 30 89  ...E%yM.......0.
0010: 72 25 14 A0                                        r%..
]
]

]
  Algorithm: [SHA256withRSA]
  Signature:
0000: 33 4F 5A F6 98 A1 85 96   BA 50 B8 18 E9 7C A1 E5  3OZ......P......
0010: 6B E6 EE 2B EE 5E 1D 9A   63 4B B2 8C 62 05 91 B7  k..+.^..cK..b...
0020: 37 BE 3B 96 7A B7 4E 06   60 C6 71 82 02 F0 0E 55  7.;.z.N.`.q....U
0030: 2B B7 CE 22 42 58 0B F3   0C D0 ED 32 4B B4 D3 8A  +.."BX.....2K...
0040: 4B 2B 4E DF 65 37 C1 63   C1 AD 3B E8 B2 30 24 C6  K+N.e7.c..;..0$.
0050: 8B 15 EE DB AB 9C 1D DA   99 44 6B 41 E4 35 6C E9  .........DkA.5l.
0060: AD 03 F2 67 12 21 18 D6   1C CF B2 89 4A ED 73 A3  ...g.!......J.s.
0070: FF 08 06 DB 9A 78 31 29   5A 4F D8 69 4B D3 20 9F  .....x1)ZO.iK. .
0080: 11 F0 60 82 1C E5 F7 F6   AF D6 B1 5E B2 7B 18 9C  ..`........^....
0090: A8 63 D7 F3 3D 01 C6 A9   54 D3 FF DA 13 33 10 6F  .c..=...T....3.o
00A0: DD 40 11 8C 0F D2 23 99   42 5C 45 04 8A A6 67 36  .@....#.B\E...g6
00B0: 92 71 C6 CC 2B 7A EA 59   D8 1A 3E 26 FD AB B4 C4  .q..+z.Y..>&....
00C0: 74 95 9D 81 BC 4A FB D0   D5 4C 99 2B 74 42 F3 D4  t....J...L.+tB..
00D0: DD EC 75 55 9D D4 D6 A5   7E 3D 7C 77 DF 03 93 8B  ..uU.....=.w....
00E0: E6 B1 F7 35 42 A6 8F 96   0E 17 FB C5 31 2D 83 9E  ...5B.......1-..
00F0: F7 3B 72 1D 17 6A 9E 0E   C4 39 C0 B1 93 59 95 C0  .;r..j...9...Y..
0100: C1 0C 0C DE 94 2B 2C BF   56 EA BA 31 80 8B 00 F8  .....+,.V..1....
0110: 6F E2 7D 56 30 ED E0 53   F6 24 BC 5F 56 B1 4F 67  o..V0..S.$._V.Og
0120: EB 97 81 1B 3A 03 9D 2F   01 DF B7 70 F2 94 20 2E  ....:../...p.. .
0130: A3 15 54 A7 6E 54 FC 48   87 51 A7 4D 55 B2 98 99  ..T.nT.H.Q.MU...
0140: 22 7A 6B CD 64 1A 34 49   36 F4 32 88 F7 1C 49 5B  "zk.d.4I6.2...I[
0150: 15 6B A6 D6 92 2C D9 29   85 E8 69 DA C1 03 FE 33  .k...,.)..i....3
0160: A9 56 E7 23 12 10 7E 29   64 7D B7 4D 0F 0C 45 34  .V.#...)d..M..E4
0170: FF 97 58 CE 3B 5F 8D 97   48 5A 9F EE 88 49 42 F9  ..X.;_..HZ...IB.
0180: E0 44 E4 D4 37 F3 78 E1   4A 14 2E 76 6E 9F 8F DA  .D..7.x.J..vn...
0190: C9 AD 2F 9C 0C 1E 36 72   CA 7D 37 4E D4 68 7A 00  ../...6r..7N.hz.
01A0: A4 01 C9 E3 19 F9 FE CF   61 51 E7 8F 66 1A C8 B6  ........aQ..f...
01B0: 17 39 CA 37 0F 5C 84 94   96 EA CA D1 98 17 96 D4  .9.7.\..........
01C0: 28 38 A9 A3 ED 40 DC FA   7E BB E2 27 9F 80 43 09  (8...@.....'..C.
01D0: E7 21 27 CD 4E 51 79 10   EA 5C D7 A6 C2 A4 ED 80  .!'.NQy..\......
01E0: DA 16 59 B6 87 C3 89 41   E5 1A 4F 0A 37 81 02 76  ..Y....A..O.7..v
01F0: 83 A2 31 5D D1 52 55 E1   46 17 5D A7 39 A9 BE 77  ..1].RU.F.].9..w

]
***
Found trusted certificate:
[
[
  Version: V3
  Subject: CN=StartCom Certification Authority, OU=Secure Digital Certificate Signing, O=StartCom Ltd., C=IL
  Signature Algorithm: SHA256withRSA, OID = 1.2.840.113549.1.1.11

  Key:  Sun RSA public key, 4096 bits
  modulus: 789552251250282597884701306815328508964205985827488062607543264199150819501779464146286981690420748988177041993780030919530451517811288720904237273985071468440469512284971154523062731349541177414421836235833952136924818185579870972709348669634655432630570477645990566129578252176638217693511340710693958486303214352334794049077164088394612746139060696788661237576231105080627141763901273859646824393573292182923267194832625533554806290003836058197165906656795844108162275688255024008572734007610974850429346100268000195219546435675787454780584516306985716486035722903543605127829660096749368302297948258789070600653866453524661304007956232152654155506887617521558634050065571419849280567844296846727079184553313865458209634158723637787681328795393504399629170385823984753610395099252135964875349840516616433578263343032079827146971491369883451426845848136805649142980849296497031202969501327029926472200667136297649882796331571948633211294958383053906535546294511470090910733103129598446925562305780242809422466171611189461940236370349767847709394748905303004128764471435176814978966543832900219242019014240312719338968931647272384455213416831229096955860767422493495839357567307394652772383917528590159405000890379087576405604782667
  public exponent: 65537
  Validity: [From: Sun Sep 17 21:46:37 CEST 2006,
               To: Wed Sep 17 21:46:36 CEST 2036]
  Issuer: CN=StartCom Certification Authority, OU=Secure Digital Certificate Signing, O=StartCom Ltd., C=IL
  SerialNumber: [    2d]

Certificate Extensions: 7
[1]: ObjectId: 2.16.840.1.113730.1.13 Criticality=false
Extension unknown: DER encoded OCTET string =
0000: 04 2B 16 29 53 74 61 72   74 43 6F 6D 20 46 72 65  .+.)StartCom Fre
0010: 65 20 53 53 4C 20 43 65   72 74 69 66 69 63 61 74  e SSL Certificat
0020: 69 6F 6E 20 41 75 74 68   6F 72 69 74 79           ion Authority


[2]: ObjectId: 2.5.29.35 Criticality=false
AuthorityKeyIdentifier [
KeyIdentifier [
0000: 4E 0B EF 1A A4 40 5B A5   17 69 87 30 CA 34 68 43  N....@[..i.0.4hC
0010: D0 41 AE F2                                        .A..
]
]

[3]: ObjectId: 2.5.29.19 Criticality=true
BasicConstraints:[
  CA:true
  PathLen:2147483647
]

[4]: ObjectId: 2.5.29.32 Criticality=false
CertificatePolicies [
  [CertificatePolicyId: [1.3.6.1.4.1.23223.1.1.1]
[PolicyQualifierInfo: [
  qualifierID: 1.3.6.1.5.5.7.2.1
  qualifier: 0000: 16 22 68 74 74 70 3A 2F   2F 77 77 77 2E 73 74 61  ."http://www.sta
0010: 72 74 73 73 6C 2E 63 6F   6D 2F 70 6F 6C 69 63 79  rtssl.com/policy
0020: 2E 70 64 66                                        .pdf

], PolicyQualifierInfo: [
  qualifierID: 1.3.6.1.5.5.7.2.1
  qualifier: 0000: 16 28 68 74 74 70 3A 2F   2F 77 77 77 2E 73 74 61  .(http://www.sta
0010: 72 74 73 73 6C 2E 63 6F   6D 2F 69 6E 74 65 72 6D  rtssl.com/interm
0020: 65 64 69 61 74 65 2E 70   64 66                    ediate.pdf

], PolicyQualifierInfo: [
  qualifierID: 1.3.6.1.5.5.7.2.2
  qualifier: 0000: 30 81 C2 30 27 16 20 53   74 61 72 74 20 43 6F 6D  0..0'. Start Com
0010: 6D 65 72 63 69 61 6C 20   28 53 74 61 72 74 43 6F  mercial (StartCo
0020: 6D 29 20 4C 74 64 2E 30   03 02 01 01 1A 81 96 4C  m) Ltd.0.......L
0030: 69 6D 69 74 65 64 20 4C   69 61 62 69 6C 69 74 79  imited Liability
0040: 2C 20 72 65 61 64 20 74   68 65 20 73 65 63 74 69  , read the secti
0050: 6F 6E 20 2A 4C 65 67 61   6C 20 4C 69 6D 69 74 61  on *Legal Limita
0060: 74 69 6F 6E 73 2A 20 6F   66 20 74 68 65 20 53 74  tions* of the St
0070: 61 72 74 43 6F 6D 20 43   65 72 74 69 66 69 63 61  artCom Certifica
0080: 74 69 6F 6E 20 41 75 74   68 6F 72 69 74 79 20 50  tion Authority P
0090: 6F 6C 69 63 79 20 61 76   61 69 6C 61 62 6C 65 20  olicy available 
00A0: 61 74 20 68 74 74 70 3A   2F 2F 77 77 77 2E 73 74  at http://www.st
00B0: 61 72 74 73 73 6C 2E 63   6F 6D 2F 70 6F 6C 69 63  artssl.com/polic
00C0: 79 2E 70 64 66                                     y.pdf

]]  ]
]

[5]: ObjectId: 2.5.29.15 Criticality=true
KeyUsage [
  Key_CertSign
  Crl_Sign
]

[6]: ObjectId: 2.16.840.1.113730.1.1 Criticality=false
NetscapeCertType [
   SSL CA
   S/MIME CA
   Object Signing CA]

[7]: ObjectId: 2.5.29.14 Criticality=false
SubjectKeyIdentifier [
KeyIdentifier [
0000: 4E 0B EF 1A A4 40 5B A5   17 69 87 30 CA 34 68 43  N....@[..i.0.4hC
0010: D0 41 AE F2                                        .A..
]
]

]
  Algorithm: [SHA256withRSA]
  Signature:
0000: 8E 8F E7 DC 94 79 7C F1   85 7F 9F 49 6F 6B CA 5D  .....y.....Iok.]
0010: FB 8C FE 04 C5 C1 62 D1   7D 42 8A BC 53 B7 94 03  ......b..B..S...
0020: 66 30 3F B1 E7 0A A7 50   20 55 25 7F 76 7A 14 0D  f0?....P U%.vz..
0030: EB 04 0E 40 E6 3E D8 88   AB 07 27 83 A9 75 A6 37  ...@.>....'..u.7
0040: 73 C7 FD 4B D2 4D AD 17   40 C8 46 BE 3B 7F 51 FC  s..K.M..@.F.;.Q.
0050: C3 B6 05 31 DC CD 85 22   4E 71 B7 F2 71 5E B0 1A  ...1..."Nq..q^..
0060: C6 BA 93 8B 78 92 4A 85   F8 78 0F 83 FE 2F AD 2C  ....x.J..x.../.,
0070: F7 E4 A4 BB 2D D0 E7 0D   3A B8 3E CE F6 78 F6 AE  ....-...:.>..x..
0080: 47 24 CA A3 35 36 CE C7   C6 87 98 DA EC FB E9 B2  G$..56..........
0090: CE 27 9B 88 C3 04 A1 F6   0B 59 68 AF C9 DB 10 0F  .'.......Yh.....
00A0: 4D F6 64 63 5C A5 12 6F   92 B2 93 94 C7 88 17 0E  M.dc\..o........
00B0: 93 B6 7E 62 8B 90 7F AB   4E 9F FC E3 75 14 4F 2A  ...b....N...u.O*
00C0: 32 DF 5B 0D E0 F5 7B 93   0D AB A1 CF 87 E1 A5 04  2.[.............
00D0: 45 E8 3C 12 A5 09 C5 B0   D1 B7 53 F3 60 14 BA 85  E.<.......S.`...
00E0: 69 6A 21 7C 1F 75 61 17   20 17 7B 6C 3B 41 29 5C  ij!..ua. ..l;A)\
00F0: E1 AC 5A D1 CD 8C 9B EB   60 1D 19 EC F7 E5 B0 DA  ..Z.....`.......
0100: F9 79 18 A5 45 3F 49 43   57 D2 DD 24 D5 2C A3 FD  .y..E?ICW..$.,..
0110: 91 8D 27 B5 E5 EB 14 06   9A 4C 7B 21 BB 3A AD 30  ..'......L.!.:.0
0120: 06 18 C0 D8 C1 6B 2C 7F   59 5C 5D 91 B1 70 22 57  .....k,.Y\]..p"W
0130: EB 8A 6B 48 4A D5 0F 29   EC C6 40 C0 2F 88 4C 68  ..kHJ..)..@./.Lh
0140: 01 17 77 F4 24 19 4F BD   FA E1 B2 20 21 4B DD 1A  ..w.$.O.... !K..
0150: D8 29 7D AA B8 DE 54 EC   21 55 80 6C 1E F5 30 C8  .)....T.!U.l..0.
0160: A3 10 E5 B2 E6 2A 14 31   C3 85 2D 8C 98 B1 86 5A  .....*.1..-....Z
0170: 4F 89 59 2D B9 C7 F7 1C   C8 8A 7F C0 9D 05 4A E6  O.Y-..........J.
0180: 42 4F 62 A3 6D 29 A4 1F   85 AB DB E5 81 C8 AD 2A  BOb.m).........*
0190: 3D 4C 5D 5B 84 26 71 C4   85 5E 71 24 CA A5 1B 6C  =L][.&q..^q$...l
01A0: D8 61 D3 1A E0 54 DB CE   BA A9 32 B5 22 F6 73 41  .a...T....2.".sA
01B0: 09 5D B8 17 5D 0E 0F 99   90 D6 47 DA 6F 0A 3A 62  .]..].....G.o.:b
01C0: 28 14 67 82 D9 F1 D0 80   59 9B CB 31 D8 9B 0F 8C  (.g.....Y..1....
01D0: 77 4E B5 68 8A F2 6C F6   24 0E 2D 6C 70 C5 73 D1  wN.h..l.$.-lp.s.
01E0: DE 14 D0 71 8F B6 D3 7B   02 F6 E3 B8 D4 09 6E 6B  ...q..........nk
01F0: 9E 75 84 39 E6 7F 25 A5   F2 48 00 C0 A4 01 DA 3F  .u.9..%..H.....?

]
main, READ: TLSv1 Handshake, length = 587
*** ECDH ServerKeyExchange
Server key: SunPKCS11-NSS EC public key, 256 bits (id 20, session object)
  public x coord: 6009276683461509395655668071701932134335297008284447570432809081665805185961
  public y coord: 103357245110303939320612111677570206464986037217722006045568782796283025273557
  parameters: secp256r1 [NIST P-256, X9.62 prime256v1] (1.2.840.10045.3.1.7)
main, READ: TLSv1 Handshake, length = 4
*** ServerHelloDone
*** ECDHClientKeyExchange
ECDH Public value:  { 4, 130, 87, 67, 208, 124, 182, 159, 70, 109, 105, 240, 5, 207, 16, 29, 95, 101, 162, 61, 150, 254, 161, 143, 37, 111, 250, 198, 191, 216, 66, 159, 145, 112, 80, 136, 189, 131, 32, 162, 102, 42, 151, 61, 149, 47, 196, 95, 10, 51, 15, 67, 85, 213, 60, 12, 201, 212, 139, 117, 76, 246, 32, 193, 102 }
main, WRITE: TLSv1 Handshake, length = 70
SESSION KEYGEN:
PreMaster Secret:
0000: 15 F8 1B 4F 31 5E 06 89   B9 A6 35 97 B0 DC D2 48  ...O1^....5....H
0010: 95 C0 A0 D5 30 F0 F7 33   4E 7E 5B 80 A0 44 EF E0  ....0..3N.[..D..
CONNECTION KEYGEN:
Client Nonce:
0000: 59 10 5D A1 B3 6B 32 C6   31 75 98 C4 D7 AE 3D 66  Y.]..k2.1u....=f
0010: 46 82 7F 72 9F 23 43 69   78 F8 94 09 6E BD 85 D2  F..r.#Cix...n...
Server Nonce:
0000: 9E 7E 85 1B 49 D4 D2 22   57 7A EC D5 A6 F0 12 25  ....I.."Wz.....%
0010: DB 08 36 83 D3 58 3B 60   8C E8 28 3F C5 E7 9A C4  ..6..X;`..(?....
Master Secret:
0000: BB D8 D4 72 DC A7 89 1A   7A CA 2A C0 49 82 ED 34  ...r....z.*.I..4
0010: 01 6F 5D B0 8A CB E4 88   92 D4 D1 4E 25 B9 7F E5  .o]........N%...
0020: AA 07 0B 03 B4 11 2C BB   79 E8 FD 5F 04 7C 10 BF  ......,.y.._....
Client MAC write Secret:
0000: 88 79 2E 89 81 53 05 8E   F9 E2 A5 9D 17 60 6B 48  .y...S.......`kH
0010: 91 11 79 99                                        ..y.
Server MAC write Secret:
0000: 62 8D B6 A6 53 38 12 1E   1A 4D E8 46 56 3D D9 2D  b...S8...M.FV=.-
0010: A5 BA 50 D5                                        ..P.
Client write key:
0000: E3 4B 73 AB C5 27 F7 4C   F8 AE 63 98 E1 E1 7C D0  .Ks..'.L..c.....
Server write key:
0000: 30 4D 5F FC 30 E3 D0 66   56 84 41 D4 B7 4D BF 4A  0M_.0..fV.A..M.J
Client write IV:
0000: 3A ED 85 6E 3E B6 25 B8   A2 F1 61 7D 1E 50 44 F9  :..n>.%...a..PD.
Server write IV:
0000: BF 90 8F 10 7F 9C 94 83   4E CA 89 7F 68 4A C0 B1  ........N...hJ..
main, WRITE: TLSv1 Change Cipher Spec, length = 1
*** Finished
verify_data:  { 135, 26, 1, 162, 53, 153, 205, 26, 164, 166, 224, 148 }
***
main, WRITE: TLSv1 Handshake, length = 48
main, READ: TLSv1 Change Cipher Spec, length = 1
main, READ: TLSv1 Handshake, length = 48
*** Finished
verify_data:  { 62, 54, 223, 143, 78, 3, 215, 119, 178, 12, 124, 227 }
***
%% Cached client session: [Session-2, TLS_ECDHE_RSA_WITH_AES_128_CBC_SHA]
main, WRITE: TLSv1 Application Data, length = 352
main, READ: TLSv1 Application Data, length = 832
2017-05-08 13:59:29,414 [main] INFO      org.mapfish.print.PDFUtils - ----->Closing connection
2017-05-08 13:59:29,447 [main] INFO  ClassPathXmlApplicationContext - Closing org.springframework.context.support.ClassPathXmlApplicationContext@43a63a1c: startup date [Mon May 08 13:59:27 CEST 2017]; root of context hierarchy
2017-05-08 13:59:29,447 [main] INFO  ClassPathXmlApplicationContext - Closing org.springframework.context.support.ClassPathXmlApplicationContext@43a63a1c: startup date [Mon May 08 13:59:27 CEST 2017]; root of context hierarchy
2017-05-08 13:59:29,447 [main] INFO  ort.DefaultListableBeanFactory - Destroying singletons in org.springframework.beans.factory.support.DefaultListableBeanFactory@62acfe94: defining beans [org.springframework.context.annotation.internalConfigurationAnnotationProcessor,org.springframework.context.annotation.internalAutowiredAnnotationProcessor,org.springframework.context.annotation.internalRequiredAnnotationProcessor,org.springframework.context.annotation.internalCommonAnnotationProcessor,mapPrinter,configFactory,threadResources,mapReaderFactoryFinder,wms-MapReaderFactory,mapServer-MapReaderFactory,tileCache-MapReaderFactory,osm-MapReaderFactory,xyz-MapReaderFactory,tms-MapReaderFactory,vector-MapReaderFactory,image-MapReaderFactory,tiledGoogle-MapReaderFactory,google-MapReaderFactory,kaMapCache-ReaderFactory,kaMap-ReaderFactory,wmts-ReaderFactory,outputFactory,imageMagickOutput,fileCachingJaiMosaicOutputFactory,inMemoryJaiMosaicOutputFactory,pdfOutputFactory,metricRegistry,healthCheckRegistry,loggingMetricsConfigurator,jvmMetricsConfigurator,jmlMetricsReporter,org.springframework.context.annotation.ConfigurationClassPostProcessor$ImportAwareBeanPostProcessor#0]; root of factory hierarchy
2017-05-08 13:59:29,447 [main] INFO  ort.DefaultListableBeanFactory - Destroying singletons in org.springframework.beans.factory.support.DefaultListableBeanFactory@62acfe94: defining beans [org.springframework.context.annotation.internalConfigurationAnnotationProcessor,org.springframework.context.annotation.internalAutowiredAnnotationProcessor,org.springframework.context.annotation.internalRequiredAnnotationProcessor,org.springframework.context.annotation.internalCommonAnnotationProcessor,mapPrinter,configFactory,threadResources,mapReaderFactoryFinder,wms-MapReaderFactory,mapServer-MapReaderFactory,tileCache-MapReaderFactory,osm-MapReaderFactory,xyz-MapReaderFactory,tms-MapReaderFactory,vector-MapReaderFactory,image-MapReaderFactory,tiledGoogle-MapReaderFactory,google-MapReaderFactory,kaMapCache-ReaderFactory,kaMap-ReaderFactory,wmts-ReaderFactory,outputFactory,imageMagickOutput,fileCachingJaiMosaicOutputFactory,inMemoryJaiMosaicOutputFactory,pdfOutputFactory,metricRegistry,healthCheckRegistry,loggingMetricsConfigurator,jvmMetricsConfigurator,jmlMetricsReporter,org.springframework.context.annotation.ConfigurationClassPostProcessor$ImportAwareBeanPostProcessor#0]; root of factory hierarchy
main, called close()
main, called closeInternal(true)
main, SEND TLSv1 ALERT:  warning, description = close_notify
main, WRITE: TLSv1 Alert, length = 32
main, called closeSocket(selfInitiated)
main, called close()
main, called closeInternal(true)
main, called close()
main, called closeInternal(true)
main, called close()
main, called closeInternal(true)
main, SEND TLSv1 ALERT:  warning, description = close_notify
main, WRITE: TLSv1 Alert, length = 32
main, called closeSocket(selfInitiated)
main, called close()
main, called closeInternal(true)
main, called close()
main, called closeInternal(true)
